

Microchip Technology PIC LITE Macro Assembler V2.00 build -1524193055 
                                                                                               Fri Nov 12 01:10:39 2021

Microchip Technology Omniscient Code Generator v2.00 (Free mode) build 20180527130849
     1  0000                     
      + 0000                     
     2                           ; Version 2.00
     3                           ; Generated 27/05/2018 GMT
     4                           
     5                           ; 
     6                           ; Copyright © 2018, Microchip Technology Inc. and its subsidiaries ("Microchip")
     7                           ; All rights reserved.
     8                           ; 
     9                           ; This software is developed by Microchip Technology Inc. and its subsidiaries ("Microch
                                 ip").
    10                           ; 
    11                           ; Redistribution and use in source and binary forms, with or without modification, are
    12                           ; permitted provided that the following conditions are met:
    13                           ; 
    14                           ;     1. Redistributions of source code must retain the above copyright notice, this lis
                                 t of
    15                           ;        conditions and the following disclaimer.
    16                           ; 
    17                           ;     2. Redistributions in binary form must reproduce the above copyright notice, this 
                                 list
    18                           ;        of conditions and the following disclaimer in the documentation and/or other
    19                           ;        materials provided with the distribution.
    20                           ; 
    21                           ;     3. Microchip's name may not be used to endorse or promote products derived from th
                                 is
    22                           ;        software without specific prior written permission.
    23                           ; 
    24                           ; THIS SOFTWARE IS PROVIDED BY MICROCHIP "AS IS" AND ANY EXPRESS OR IMPLIED WARRANTIES,

    25                           ; INCLUDING, BUT NOT LIMITED TO, THE IMPLIED WARRANTIES OF MERCHANTABILITY AND FITNESS F
                                 OR
    26                           ; PURPOSE ARE DISCLAIMED.  IN NO EVENT SHALL MICROCHIP BE LIABLE FOR ANY DIRECT, INDIREC
                                 T,
    27                           ; INCIDENTAL, SPECIAL, EXEMPLARY, OR CONSEQUENTIAL DAMAGES (INCLUDING BUT NOT LIMITED TO
                                 
    28                           ; PROCUREMENT OF SUBSTITUTE GOODS OR SERVICES; LOSS OF USE, DATA OR PROFITS; OR BUSINESS
                                 
    29                           ; INTERRUPTION) HOWSOEVER CAUSED AND ON ANY THEORY OF LIABILITY, WHETHER IN CONTRACT, ST
                                 RICT
    30                           ; LIABILITY, OR TORT (INCLUDING NEGLIGENCE OR OTHERWISE) ARISING IN ANY WAY OUT OF THE U
                                 SE OF
    31                           ; THIS SOFTWARE, EVEN IF ADVISED OF THE POSSIBILITY OF SUCH DAMAGE.
    32                           ; 
    33                           
    34                           
    35                           ; 
    36                           ; Code-generator required, PIC12F675 Definitions
    37                           ; 
    38  0004                     fsr0 equ 04h
    39  0004                     indf equ 00h
    40  0000                     indf0 equ 00h
    41  0000                     pc equ 02h
    42  0002                     pcl equ 02h
    43  0002                     pclath equ 0Ah
    44  000A                     status equ 03h
    45  0003                     
     2                           opt pagewidth 120
     3  0000                     byte0	macro	val
     4                           	(getbyte(val,0))
     5                           endm
     6  0000                     byte1	macro	val
     7                           	(getbyte(val,1))
     8                           endm
     9  0000                     byte2	macro	val
    10                           	(getbyte(val,2))
    11                           endm
    12  0000                     byte3	macro	val
    13                           	(getbyte(val,3))
    14                           endm
    15  0000                     byte4	macro	val
    16                           	(getbyte(val,4))
    17                           endm
    18  0000                     byte5	macro	val
    19                           	(getbyte(val,5))
    20                           endm
    21  0000                     byte6	macro	val
    22                           	(getbyte(val,6))
    23                           endm
    24  0000                     byte7	macro	val
    25                           	(getbyte(val,7))
    26                           endm
    27  0000                     getword	macro	val,pos
    28                           	(((val) >> (8 * pos)) and 0xffff)
    29                           endm
    30  0000                     word0	macro	val
    31                           	(getword(val,0))
    32                           endm
    33  0000                     word1	macro	val
    34                           	(getword(val,2))
    35                           endm
    36  0000                     word2	macro	val
    37                           	(getword(val,4))
    38                           endm
    39  0000                     word3	macro	val
    40                           	(getword(val,6))
    41                           endm
    42  0000                     gettword	macro	val,pos
    43                           	(((val) >> (8 * pos)) and 0xffffff)
    44                           endm
    45  0000                     tword0	macro	val
    46                           	(gettword(val,0))
    47                           endm
    48  0000                     tword1	macro	val
    49                           	(gettword(val,3))
    50                           endm
    51  0000                     tword2	macro	val
    52                           	(gettword(val,6))
    53                           endm
    54  0000                     getdword	macro	val,pos
    55                           	(((val) >> (8 * pos)) and 0xffffffff)
    56                           endm
    57  0000                     dword0	macro	val
    58                           	(getdword(val,0))
    59                           endm
    60  0000                     dword1	macro	val
    61                           	(getdword(val,4))
    62                           endm
    63  0000                     clrc	macro
    64                           	bcf	3,0
    65                           	endm
    66  0000                     clrz	macro
    67                           	bcf	3,2
    68                           	endm
    69  0000                     setc	macro
    70                           	bsf	3,0
    71                           	endm
    72  0000                     setz	macro
    73                           	bsf	3,2
    74                           	endm
    75  0000                     skipc	macro
    76                           	btfss	3,0
    77                           	endm
    78  0000                     skipz	macro
    79                           	btfss	3,2
    80                           	endm
    81  0000                     skipnc	macro
    82                           	btfsc	3,0
    83                           	endm
    84  0000                     skipnz	macro
    85                           	btfsc	3,2
    86                           	endm
    87  0000                     # 54 "C:\Program Files (x86)\Microchip\xc8\v2.00\pic\include\pic12f675.h"
    88                           INDF equ 00h ;# 
    89  0000                     # 74 "C:\Program Files (x86)\Microchip\xc8\v2.00\pic\include\pic12f675.h"
    90                           TMR0 equ 01h ;# 
    91  0001                     # 94 "C:\Program Files (x86)\Microchip\xc8\v2.00\pic\include\pic12f675.h"
    92                           PCL equ 02h ;# 
    93  0002                     # 114 "C:\Program Files (x86)\Microchip\xc8\v2.00\pic\include\pic12f675.h"
    94                           STATUS equ 03h ;# 
    95  0003                     # 200 "C:\Program Files (x86)\Microchip\xc8\v2.00\pic\include\pic12f675.h"
    96                           FSR equ 04h ;# 
    97  0004                     # 220 "C:\Program Files (x86)\Microchip\xc8\v2.00\pic\include\pic12f675.h"
    98                           GPIO equ 05h ;# 
    99  0005                     # 308 "C:\Program Files (x86)\Microchip\xc8\v2.00\pic\include\pic12f675.h"
   100                           PCLATH equ 0Ah ;# 
   101  000A                     # 328 "C:\Program Files (x86)\Microchip\xc8\v2.00\pic\include\pic12f675.h"
   102                           INTCON equ 0Bh ;# 
   103  000B                     # 406 "C:\Program Files (x86)\Microchip\xc8\v2.00\pic\include\pic12f675.h"
   104                           PIR1 equ 0Ch ;# 
   105  000C                     # 454 "C:\Program Files (x86)\Microchip\xc8\v2.00\pic\include\pic12f675.h"
   106                           TMR1 equ 0Eh ;# 
   107  000E                     # 461 "C:\Program Files (x86)\Microchip\xc8\v2.00\pic\include\pic12f675.h"
   108                           TMR1L equ 0Eh ;# 
   109  000E                     # 481 "C:\Program Files (x86)\Microchip\xc8\v2.00\pic\include\pic12f675.h"
   110                           TMR1H equ 0Fh ;# 
   111  000F                     # 501 "C:\Program Files (x86)\Microchip\xc8\v2.00\pic\include\pic12f675.h"
   112                           T1CON equ 010h ;# 
   113  0010                     # 566 "C:\Program Files (x86)\Microchip\xc8\v2.00\pic\include\pic12f675.h"
   114                           CMCON equ 019h ;# 
   115  0019                     # 625 "C:\Program Files (x86)\Microchip\xc8\v2.00\pic\include\pic12f675.h"
   116                           ADRESH equ 01Eh ;# 
   117  001E                     # 645 "C:\Program Files (x86)\Microchip\xc8\v2.00\pic\include\pic12f675.h"
   118                           ADCON0 equ 01Fh ;# 
   119  001F                     # 729 "C:\Program Files (x86)\Microchip\xc8\v2.00\pic\include\pic12f675.h"
   120                           OPTION_REG equ 081h ;# 
   121  0081                     # 799 "C:\Program Files (x86)\Microchip\xc8\v2.00\pic\include\pic12f675.h"
   122                           TRISIO equ 085h ;# 
   123  0085                     # 849 "C:\Program Files (x86)\Microchip\xc8\v2.00\pic\include\pic12f675.h"
   124                           PIE1 equ 08Ch ;# 
   125  008C                     # 897 "C:\Program Files (x86)\Microchip\xc8\v2.00\pic\include\pic12f675.h"
   126                           PCON equ 08Eh ;# 
   127  008E                     # 931 "C:\Program Files (x86)\Microchip\xc8\v2.00\pic\include\pic12f675.h"
   128                           OSCCAL equ 090h ;# 
   129  0090                     # 991 "C:\Program Files (x86)\Microchip\xc8\v2.00\pic\include\pic12f675.h"
   130                           WPU equ 095h ;# 
   131  0095                     # 1036 "C:\Program Files (x86)\Microchip\xc8\v2.00\pic\include\pic12f675.h"
   132                           IOC equ 096h ;# 
   133  0096                     # 1041 "C:\Program Files (x86)\Microchip\xc8\v2.00\pic\include\pic12f675.h"
   134                           IOCB equ 096h ;# 
   135  0096                     # 1210 "C:\Program Files (x86)\Microchip\xc8\v2.00\pic\include\pic12f675.h"
   136                           VRCON equ 099h ;# 
   137  0099                     # 1270 "C:\Program Files (x86)\Microchip\xc8\v2.00\pic\include\pic12f675.h"
   138                           EEDATA equ 09Ah ;# 
   139  009A                     # 1275 "C:\Program Files (x86)\Microchip\xc8\v2.00\pic\include\pic12f675.h"
   140                           EEDAT equ 09Ah ;# 
   141  009A                     # 1308 "C:\Program Files (x86)\Microchip\xc8\v2.00\pic\include\pic12f675.h"
   142                           EEADR equ 09Bh ;# 
   143  009B                     # 1328 "C:\Program Files (x86)\Microchip\xc8\v2.00\pic\include\pic12f675.h"
   144                           EECON1 equ 09Ch ;# 
   145  009C                     # 1366 "C:\Program Files (x86)\Microchip\xc8\v2.00\pic\include\pic12f675.h"
   146                           EECON2 equ 09Dh ;# 
   147  009D                     # 1386 "C:\Program Files (x86)\Microchip\xc8\v2.00\pic\include\pic12f675.h"
   148                           ADRESL equ 09Eh ;# 
   149  009E                     # 1406 "C:\Program Files (x86)\Microchip\xc8\v2.00\pic\include\pic12f675.h"
   150                           ANSEL equ 09Fh ;# 
   151  009F                     # 54 "C:\Program Files (x86)\Microchip\xc8\v2.00\pic\include\pic12f675.h"
   152                           INDF equ 00h ;# 
   153  0000                     # 74 "C:\Program Files (x86)\Microchip\xc8\v2.00\pic\include\pic12f675.h"
   154                           TMR0 equ 01h ;# 
   155  0001                     # 94 "C:\Program Files (x86)\Microchip\xc8\v2.00\pic\include\pic12f675.h"
   156                           PCL equ 02h ;# 
   157  0002                     # 114 "C:\Program Files (x86)\Microchip\xc8\v2.00\pic\include\pic12f675.h"
   158                           STATUS equ 03h ;# 
   159  0003                     # 200 "C:\Program Files (x86)\Microchip\xc8\v2.00\pic\include\pic12f675.h"
   160                           FSR equ 04h ;# 
   161  0004                     # 220 "C:\Program Files (x86)\Microchip\xc8\v2.00\pic\include\pic12f675.h"
   162                           GPIO equ 05h ;# 
   163  0005                     # 308 "C:\Program Files (x86)\Microchip\xc8\v2.00\pic\include\pic12f675.h"
   164                           PCLATH equ 0Ah ;# 
   165  000A                     # 328 "C:\Program Files (x86)\Microchip\xc8\v2.00\pic\include\pic12f675.h"
   166                           INTCON equ 0Bh ;# 
   167  000B                     # 406 "C:\Program Files (x86)\Microchip\xc8\v2.00\pic\include\pic12f675.h"
   168                           PIR1 equ 0Ch ;# 
   169  000C                     # 454 "C:\Program Files (x86)\Microchip\xc8\v2.00\pic\include\pic12f675.h"
   170                           TMR1 equ 0Eh ;# 
   171  000E                     # 461 "C:\Program Files (x86)\Microchip\xc8\v2.00\pic\include\pic12f675.h"
   172                           TMR1L equ 0Eh ;# 
   173  000E                     # 481 "C:\Program Files (x86)\Microchip\xc8\v2.00\pic\include\pic12f675.h"
   174                           TMR1H equ 0Fh ;# 
   175  000F                     # 501 "C:\Program Files (x86)\Microchip\xc8\v2.00\pic\include\pic12f675.h"
   176                           T1CON equ 010h ;# 
   177  0010                     # 566 "C:\Program Files (x86)\Microchip\xc8\v2.00\pic\include\pic12f675.h"
   178                           CMCON equ 019h ;# 
   179  0019                     # 625 "C:\Program Files (x86)\Microchip\xc8\v2.00\pic\include\pic12f675.h"
   180                           ADRESH equ 01Eh ;# 
   181  001E                     # 645 "C:\Program Files (x86)\Microchip\xc8\v2.00\pic\include\pic12f675.h"
   182                           ADCON0 equ 01Fh ;# 
   183  001F                     # 729 "C:\Program Files (x86)\Microchip\xc8\v2.00\pic\include\pic12f675.h"
   184                           OPTION_REG equ 081h ;# 
   185  0081                     # 799 "C:\Program Files (x86)\Microchip\xc8\v2.00\pic\include\pic12f675.h"
   186                           TRISIO equ 085h ;# 
   187  0085                     # 849 "C:\Program Files (x86)\Microchip\xc8\v2.00\pic\include\pic12f675.h"
   188                           PIE1 equ 08Ch ;# 
   189  008C                     # 897 "C:\Program Files (x86)\Microchip\xc8\v2.00\pic\include\pic12f675.h"
   190                           PCON equ 08Eh ;# 
   191  008E                     # 931 "C:\Program Files (x86)\Microchip\xc8\v2.00\pic\include\pic12f675.h"
   192                           OSCCAL equ 090h ;# 
   193  0090                     # 991 "C:\Program Files (x86)\Microchip\xc8\v2.00\pic\include\pic12f675.h"
   194                           WPU equ 095h ;# 
   195  0095                     # 1036 "C:\Program Files (x86)\Microchip\xc8\v2.00\pic\include\pic12f675.h"
   196                           IOC equ 096h ;# 
   197  0096                     # 1041 "C:\Program Files (x86)\Microchip\xc8\v2.00\pic\include\pic12f675.h"
   198                           IOCB equ 096h ;# 
   199  0096                     # 1210 "C:\Program Files (x86)\Microchip\xc8\v2.00\pic\include\pic12f675.h"
   200                           VRCON equ 099h ;# 
   201  0099                     # 1270 "C:\Program Files (x86)\Microchip\xc8\v2.00\pic\include\pic12f675.h"
   202                           EEDATA equ 09Ah ;# 
   203  009A                     # 1275 "C:\Program Files (x86)\Microchip\xc8\v2.00\pic\include\pic12f675.h"
   204                           EEDAT equ 09Ah ;# 
   205  009A                     # 1308 "C:\Program Files (x86)\Microchip\xc8\v2.00\pic\include\pic12f675.h"
   206                           EEADR equ 09Bh ;# 
   207  009B                     # 1328 "C:\Program Files (x86)\Microchip\xc8\v2.00\pic\include\pic12f675.h"
   208                           EECON1 equ 09Ch ;# 
   209  009C                     # 1366 "C:\Program Files (x86)\Microchip\xc8\v2.00\pic\include\pic12f675.h"
   210                           EECON2 equ 09Dh ;# 
   211  009D                     # 1386 "C:\Program Files (x86)\Microchip\xc8\v2.00\pic\include\pic12f675.h"
   212                           ADRESL equ 09Eh ;# 
   213  009E                     # 1406 "C:\Program Files (x86)\Microchip\xc8\v2.00\pic\include\pic12f675.h"
   214                           ANSEL equ 09Fh ;# 
   215  009F                     	FNCALL	_main,_ADC
   216                           	FNCALL	_main,_blijniyOff
   217                           	FNCALL	_main,_blijniyOn
   218                           	FNCALL	_main,_gabaritOff
   219                           	FNCALL	_main,_gabaritOn
   220                           	FNCALL	_main,_sentrZamok
   221                           	FNCALL	_gabaritOn,_ADC
   222                           	FNCALL	_gabaritOff,_ADC
   223                           	FNCALL	_blijniyOn,_ADC
   224                           	FNCALL	_blijniyOff,_ADC
   225                           	FNROOT	_main
   226                           	FNCALL	intlevel1,_isr
   227                           	global	intlevel1
   228                           	FNROOT	intlevel1
   229                           	global	_blijOff
   230                           	global	_blijOn
   231                           	global	_gabOff
   232                           	global	_gabOn
   233                           psect	idataBANK0,class=CODE,space=0,delta=2,noexec
   234                           global __pidataBANK0
   235                           __pidataBANK0:
   236  0220                     	file	"Tunel-New.c"
   237                           	line	21
   238                           
   239                           ;initializer for _blijOff
   240                           	retlw	028h
   241  0220  3428               	retlw	0
   242  0221  3400               
   243                           	line	20
   244                           
   245                           ;initializer for _blijOn
   246                           	retlw	064h
   247  0222  3464               	retlw	0
   248  0223  3400               
   249                           	line	19
   250                           
   251                           ;initializer for _gabOff
   252                           	retlw	026h
   253  0224  3426               	retlw	0
   254  0225  3400               
   255                           	line	18
   256                           
   257                           ;initializer for _gabOn
   258                           	retlw	032h
   259  0226  3432               	retlw	0
   260  0227  3400               
   261                           	global	_volt
   262                           	global	_i
   263                           	global	_ADCON0
   264                           _ADCON0	set	0x1F
   265  001F                     	global	_INTCON
   266                           _INTCON	set	0xB
   267  000B                     	global	_CMCON
   268                           _CMCON	set	0x19
   269  0019                     	global	_GPIO
   270                           _GPIO	set	0x5
   271  0005                     	global	_ADRESH
   272                           _ADRESH	set	0x1E
   273  001E                     	global	_GP5
   274                           _GP5	set	0x2D
   275  002D                     	global	_GP2
   276                           _GP2	set	0x2A
   277  002A                     	global	_INTF
   278                           _INTF	set	0x59
   279  0059                     	global	_GP0
   280                           _GP0	set	0x28
   281  0028                     	global	_GP1
   282                           _GP1	set	0x29
   283  0029                     	global	_GP3
   284                           _GP3	set	0x2B
   285  002B                     	global	_GO_DONE
   286                           _GO_DONE	set	0xF9
   287  00F9                     	global	_ADON
   288                           _ADON	set	0xF8
   289  00F8                     	global	_ANSEL
   290                           _ANSEL	set	0x9F
   291  009F                     	global	_OPTION_REGbits
   292                           _OPTION_REGbits	set	0x81
   293  0081                     	global	_TRISIO
   294                           _TRISIO	set	0x85
   295  0085                     ; #config settings
   296                           global __CFG_FOSC$INTRCIO
   297                           __CFG_FOSC$INTRCIO equ 0x0
   298  0000                     global __CFG_WDTE$OFF
   299                           __CFG_WDTE$OFF equ 0x0
   300  0000                     global __CFG_PWRTE$OFF
   301                           __CFG_PWRTE$OFF equ 0x0
   302  0000                     global __CFG_MCLRE$OFF
   303                           __CFG_MCLRE$OFF equ 0x0
   304  0000                     global __CFG_BOREN$OFF
   305                           __CFG_BOREN$OFF equ 0x0
   306  0000                     global __CFG_CP$ON
   307                           __CFG_CP$ON equ 0x0
   308  0000                     global __CFG_CPD$ON
   309                           __CFG_CPD$ON equ 0x0
   310  0000                     	file	"C:\Users\User\AppData\Local\Temp\s5qg."
   311                           	line	#
   312                           psect cinit,class=CODE,delta=2
   313                           global start_initialization
   314                           start_initialization:
   315  000C                     
   316                           global __initialization
   317                           __initialization:
   318  000C                     psect	bssBANK0,class=BANK0,space=1,noexec
   319                           global __pbssBANK0
   320                           __pbssBANK0:
   321  002D                     _volt:
   322  002D                            ds      2
   323  002D                     
   324                           _i:
   325  002F                            ds      2
   326  002F                     
   327                           psect	dataBANK0,class=BANK0,space=1,noexec
   328                           global __pdataBANK0
   329                           __pdataBANK0:
   330  0020                     	file	"Tunel-New.c"
   331                           	line	21
   332                           _blijOff:
   333  0020                            ds      2
   334  0020                     
   335                           psect	dataBANK0
   336                           	file	"Tunel-New.c"
   337                           	line	20
   338                           _blijOn:
   339  0022                            ds      2
   340  0022                     
   341                           psect	dataBANK0
   342                           	file	"Tunel-New.c"
   343                           	line	19
   344                           _gabOff:
   345  0024                            ds      2
   346  0024                     
   347                           psect	dataBANK0
   348                           	file	"Tunel-New.c"
   349                           	line	18
   350                           _gabOn:
   351  0026                            ds      2
   352  0026                     
   353                           	file	"C:\Users\User\AppData\Local\Temp\s5qg."
   354                           	line	#
   355                           ; Initialize objects allocated to BANK0
   356                           	global __pidataBANK0
   357                           psect cinit,class=CODE,delta=2,merge=1
   358                           	fcall	__pidataBANK0+0		;fetch initializer
   359  000C  2220               	movwf	__pdataBANK0+0&07fh		
   360  000D  00A0               	fcall	__pidataBANK0+1		;fetch initializer
   361  000E  2221               	movwf	__pdataBANK0+1&07fh		
   362  000F  00A1               	fcall	__pidataBANK0+2		;fetch initializer
   363  0010  2222               	movwf	__pdataBANK0+2&07fh		
   364  0011  00A2               	fcall	__pidataBANK0+3		;fetch initializer
   365  0012  2223               	movwf	__pdataBANK0+3&07fh		
   366  0013  00A3               	fcall	__pidataBANK0+4		;fetch initializer
   367  0014  2224               	movwf	__pdataBANK0+4&07fh		
   368  0015  00A4               	fcall	__pidataBANK0+5		;fetch initializer
   369  0016  2225               	movwf	__pdataBANK0+5&07fh		
   370  0017  00A5               	fcall	__pidataBANK0+6		;fetch initializer
   371  0018  2226               	movwf	__pdataBANK0+6&07fh		
   372  0019  00A6               	fcall	__pidataBANK0+7		;fetch initializer
   373  001A  2227               	movwf	__pdataBANK0+7&07fh		
   374  001B  00A7               	line	#
   375                           ; Clear objects allocated to BANK0
   376                           psect cinit,class=CODE,delta=2,merge=1
   377                           	clrf	((__pbssBANK0)+0)&07Fh
   378  001C  01AD               	clrf	((__pbssBANK0)+1)&07Fh
   379  001D  01AE               	clrf	((__pbssBANK0)+2)&07Fh
   380  001E  01AF               	clrf	((__pbssBANK0)+3)&07Fh
   381  001F  01B0               psect cinit,class=CODE,delta=2,merge=1
   382                           global end_of_initialization,__end_of__initialization
   383                           
   384                           ;End of C runtime variable initialization code
   385                           
   386                           end_of_initialization:
   387  0020                     __end_of__initialization:
   388  0020                     clrf status
   389  0020  0183               ljmp _main	;jump to C main() function
   390  0021  2822               psect	cstackCOMMON,class=COMMON,space=1,noexec
   391                           global __pcstackCOMMON
   392                           __pcstackCOMMON:
   393  0000                     ??_blijniyOff:	; 1 bytes @ 0x0
   394  0000                     ??_main:	; 1 bytes @ 0x0
   395  0000                     psect	cstackBANK0,class=BANK0,space=1,noexec
   396                           global __pcstackBANK0
   397                           __pcstackBANK0:
   398  0028                     ?_ADC:	; 1 bytes @ 0x0
   399  0028                     ?_gabaritOn:	; 1 bytes @ 0x0
   400  0028                     ?_gabaritOff:	; 1 bytes @ 0x0
   401  0028                     ?_blijniyOn:	; 1 bytes @ 0x0
   402  0028                     ?_blijniyOff:	; 1 bytes @ 0x0
   403  0028                     ?_sentrZamok:	; 1 bytes @ 0x0
   404  0028                     ?_isr:	; 1 bytes @ 0x0
   405  0028                     ??_isr:	; 1 bytes @ 0x0
   406  0028                     ?_main:	; 1 bytes @ 0x0
   407  0028                     	ds	2
   408  0028                     ??_ADC:	; 1 bytes @ 0x2
   409  002A                     ??_sentrZamok:	; 1 bytes @ 0x2
   410  002A                     	ds	2
   411  002A                     ??_gabaritOn:	; 1 bytes @ 0x4
   412  002C                     ??_gabaritOff:	; 1 bytes @ 0x4
   413  002C                     ??_blijniyOn:	; 1 bytes @ 0x4
   414  002C                     	ds	1
   415  002C                     ;!
   416                           ;!Data Sizes:
   417                           ;!    Strings     0
   418                           ;!    Constant    0
   419                           ;!    Data        8
   420                           ;!    BSS         4
   421                           ;!    Persistent  0
   422                           ;!    Stack       0
   423                           ;!
   424                           ;!Auto Spaces:
   425                           ;!    Space          Size  Autos    Used
   426                           ;!    COMMON            0      0       0
   427                           ;!    BANK0            62      5      17
   428                           
   429                           ;!
   430                           ;!Pointer List with Targets:
   431                           ;!
   432                           ;!    None.
   433                           
   434                           
   435                           ;!
   436                           ;!Critical Paths under _main in COMMON
   437                           ;!
   438                           ;!    None.
   439                           ;!
   440                           ;!Critical Paths under _isr in COMMON
   441                           ;!
   442                           ;!    None.
   443                           ;!
   444                           ;!Critical Paths under _main in BANK0
   445                           ;!
   446                           ;!    _main->_blijniyOn
   447                           ;!    _main->_gabaritOff
   448                           ;!    _main->_gabaritOn
   449                           ;!    _gabaritOn->_ADC
   450                           ;!    _gabaritOff->_ADC
   451                           ;!    _blijniyOn->_ADC
   452                           ;!    _blijniyOff->_ADC
   453                           ;!
   454                           ;!Critical Paths under _isr in BANK0
   455                           ;!
   456                           ;!    None.
   457                           
   458 ;;
   459 ;;Main: autosize = 0, tempsize = 0, incstack = 0, save=0
   460 ;;
   461                           
   462                           ;!
   463                           ;!Call Graph Tables:
   464                           ;!
   465                           ;! ---------------------------------------------------------------------------------
   466                           ;! (Depth) Function   	        Calls       Base Space   Used Autos Params    Refs
   467                           ;! ---------------------------------------------------------------------------------
   468                           ;! (0) _main                                                 0     0      0       0
   469                           ;!                                _ADC
   470                           ;!                         _blijniyOff
   471                           ;!                          _blijniyOn
   472                           ;!                         _gabaritOff
   473                           ;!                          _gabaritOn
   474                           ;!                         _sentrZamok
   475                           ;! ---------------------------------------------------------------------------------
   476                           ;! (1) _sentrZamok                                           1     1      0       0
   477                           ;!                                              2 BANK0      1     1      0
   478                           ;! ---------------------------------------------------------------------------------
   479                           ;! (1) _gabaritOn                                            1     1      0       0
   480                           ;!                                              4 BANK0      1     1      0
   481                           ;!                                _ADC
   482                           ;! ---------------------------------------------------------------------------------
   483                           ;! (1) _gabaritOff                                           1     1      0       0
   484                           ;!                                              4 BANK0      1     1      0
   485                           ;!                                _ADC
   486                           ;! ---------------------------------------------------------------------------------
   487                           ;! (1) _blijniyOn                                            1     1      0       0
   488                           ;!                                              4 BANK0      1     1      0
   489                           ;!                                _ADC
   490                           ;! ---------------------------------------------------------------------------------
   491                           ;! (1) _blijniyOff                                           0     0      0       0
   492                           ;!                                _ADC
   493                           ;! ---------------------------------------------------------------------------------
   494                           ;! (2) _ADC                                                  2     2      0       0
   495                           ;!                                              2 BANK0      2     2      0
   496                           ;! ---------------------------------------------------------------------------------
   497                           ;! Estimated maximum stack depth 2
   498                           ;! ---------------------------------------------------------------------------------
   499                           ;! (Depth) Function   	        Calls       Base Space   Used Autos Params    Refs
   500                           ;! ---------------------------------------------------------------------------------
   501                           ;! (3) _isr                                                  2     2      0       0
   502                           ;!                                              0 BANK0      2     2      0
   503                           ;! ---------------------------------------------------------------------------------
   504                           ;! Estimated maximum stack depth 3
   505                           ;! ---------------------------------------------------------------------------------
   506                           ;!
   507                           ;! Call Graph Graphs:
   508                           ;!
   509                           ;! _main (ROOT)
   510                           ;!   _ADC
   511                           ;!   _blijniyOff
   512                           ;!     _ADC
   513                           ;!   _blijniyOn
   514                           ;!     _ADC
   515                           ;!   _gabaritOff
   516                           ;!     _ADC
   517                           ;!   _gabaritOn
   518                           ;!     _ADC
   519                           ;!   _sentrZamok
   520                           ;!
   521                           ;! _isr (ROOT)
   522                           ;!
   523                           
   524                           ;! Address spaces:
   525                           
   526                           ;!Name               Size   Autos  Total    Cost      Usage
   527                           ;!SFR1                 0      0       0       2        0.0%
   528                           ;!BITSFR1              0      0       0       2        0.0%
   529                           ;!BANK0               3E      5      11       4       27.4%
   530                           ;!BITBANK0            3E      0       0       3        0.0%
   531                           ;!SFR0                 0      0       0       1        0.0%
   532                           ;!BITSFR0              0      0       0       1        0.0%
   533                           ;!COMMON               0      0       0       1        0.0%
   534                           ;!BITCOMMON            0      0       0       0        0.0%
   535                           ;!CODE                 0      0       0       0        0.0%
   536                           ;!DATA                 0      0      11       6        0.0%
   537                           ;!ABS                  0      0      11       5        0.0%
   538                           ;!NULL                 0      0       0       0        0.0%
   539                           ;!STACK                0      0       0       2        0.0%
   540                           ;!EEDATA              80      0       0       0        0.0%
   541                           
   542                           	global	_main
   543                           
   544 ;; *************** function _main *****************
   545 ;; Defined at:
   546 ;;		line 117 in file "Tunel-New.c"
   547 ;; Parameters:    Size  Location     Type
   548 ;;		None
   549 ;; Auto vars:     Size  Location     Type
   550 ;;		None
   551 ;; Return value:  Size  Location     Type
   552 ;;                  1    wreg      void 
   553 ;; Registers used:
   554 ;;		wreg, status,2, status,0, pclath, cstack
   555 ;; Tracked objects:
   556 ;;		On entry : B00/0
   557 ;;		On exit  : 0/0
   558 ;;		Unchanged: 0/0
   559 ;; Data sizes:     COMMON   BANK0
   560 ;;      Params:         0       0
   561 ;;      Locals:         0       0
   562 ;;      Temps:          0       0
   563 ;;      Totals:         0       0
   564 ;;Total ram usage:        0 bytes
   565 ;; Hardware stack levels required when called:    3
   566 ;; This function calls:
   567 ;;		_ADC
   568 ;;		_blijniyOff
   569 ;;		_blijniyOn
   570 ;;		_gabaritOff
   571 ;;		_gabaritOn
   572 ;;		_sentrZamok
   573 ;; This function is called by:
   574 ;;		Startup code after reset
   575 ;; This function uses a non-reentrant model
   576 ;;
   577                           psect	maintext,global,class=CODE,delta=2,split=1,group=0
   578                           	file	"Tunel-New.c"
   579                           	line	117
   580                           global __pmaintext
   581                           __pmaintext:	;psect for function _main
   582  0022                     psect	maintext
   583                           	file	"Tunel-New.c"
   584                           	line	117
   585                           	global	__size_of_main
   586                           	__size_of_main	equ	__end_of_main-_main
   587  007C                     	
   588                           _main:	
   589  0022                     ;incstack = 0
   590                           	opt	stack 5
   591                           ; Regs used in _main: [wreg+status,2+status,0+pclath+cstack]
   592                           	line	118
   593                           	
   594                           l954:	
   595  0022                     ;Tunel-New.c: 118:             }
   596                           	movlw	low(03Ch)
   597  0022  303C               	bsf	status, 5	;RP0=1, select bank1
   598  0023  1683               	movwf	(133)^080h	;volatile
   599  0024  0085               	line	119
   600                           	
   601                           l956:	
   602  0025                     ;Tunel-New.c: 119:             if (volt < gabOff && GP1 == 1) {
   603                           	bcf	status, 5	;RP0=0, select bank0
   604  0025  1283               	clrf	(5)	;volatile
   605  0026  0185               	line	120
   606                           	
   607                           l958:	
   608  0027                     ;Tunel-New.c: 120:                 gabaritOff();
   609                           	movlw	low(07h)
   610  0027  3007               	movwf	(25)	;volatile
   611  0028  0099               	line	121
   612                           	
   613                           l960:	
   614  0029                     ;Tunel-New.c: 121:             }
   615                           	movlw	low(090h)
   616  0029  3090               	movwf	(11)	;volatile
   617  002A  008B               	line	122
   618                           	
   619                           l962:	
   620  002B                     ;Tunel-New.c: 122:         }
   621                           	bsf	status, 5	;RP0=1, select bank1
   622  002B  1683               	bcf	(129)^080h,6	;volatile
   623  002C  1301               	line	123
   624                           	
   625                           l964:	
   626  002D                     ;Tunel-New.c: 123:         if (GP5 == 0) {
   627                           	movlw	low(0Ch)
   628  002D  300C               	bcf	status, 5	;RP0=0, select bank0
   629  002E  1283               	movwf	(31)	;volatile
   630  002F  009F               	line	124
   631                           	
   632                           l966:	
   633  0030                     ;Tunel-New.c: 124:             ADC();
   634                           	movlw	low(018h)
   635  0030  3018               	bsf	status, 5	;RP0=1, select bank1
   636  0031  1683               	movwf	(159)^080h	;volatile
   637  0032  009F               	goto	l994
   638  0033  287B               	line	125
   639                           ;Tunel-New.c: 125:             if (volt > gabOn) {
   640                           	
   641                           l112:	
   642  0034                     	line	126
   643                           ;Tunel-New.c: 126:                 sentrZamok();
   644                           	goto	l994
   645  0034  287B               	
   646                           l114:	
   647  0035                     	line	127
   648                           	
   649                           l968:	
   650  0035                     ;Tunel-New.c: 127:             }
   651                           	fcall	_ADC
   652  0035  21D9               	line	128
   653                           	
   654                           l970:	
   655  0036                     ;Tunel-New.c: 128:         }
   656                           	bcf	status, 5	;RP0=0, select bank0
   657  0036  1283               	movf	(_volt+1),w
   658  0037  082E               	subwf	(_gabOn+1),w
   659  0038  0227               	skipz
   660  0039  1D03               	goto	u695
   661  003A  283D               	movf	(_volt),w
   662  003B  082D               	subwf	(_gabOn),w
   663  003C  0226               u695:
   664  003D                     	skipnc
   665  003D  1803               	goto	u691
   666  003E  2840               	goto	u690
   667  003F  2841               u691:
   668  0040                     	goto	l976
   669  0040  2847               u690:
   670  0041                     	
   671                           l972:	
   672  0041                     	btfsc	(41/8),(41)&7	;volatile
   673  0041  1885               	goto	u701
   674  0042  2844               	goto	u700
   675  0043  2845               u701:
   676  0044                     	goto	l976
   677  0044  2847               u700:
   678  0045                     	line	129
   679                           	
   680                           l974:	
   681  0045                     ;Tunel-New.c: 129:         if (GP2 == 1) {
   682                           	fcall	_gabaritOn
   683  0045  209E               	goto	l976
   684  0046  2847               	line	130
   685                           ;Tunel-New.c: 130:             GP1 = 0;
   686                           	
   687                           l115:	
   688  0047                     	line	131
   689                           	
   690                           l976:	
   691  0047                     ;Tunel-New.c: 131:             GP0 = 0;
   692                           	bcf	status, 5	;RP0=0, select bank0
   693  0047  1283               	movf	(_volt+1),w
   694  0048  082E               	subwf	(_blijOn+1),w
   695  0049  0223               	skipz
   696  004A  1D03               	goto	u715
   697  004B  284E               	movf	(_volt),w
   698  004C  082D               	subwf	(_blijOn),w
   699  004D  0222               u715:
   700  004E                     	skipnc
   701  004E  1803               	goto	u711
   702  004F  2851               	goto	u710
   703  0050  2852               u711:
   704  0051                     	goto	l982
   705  0051  2858               u710:
   706  0052                     	
   707                           l978:	
   708  0052                     	btfsc	(40/8),(40)&7	;volatile
   709  0052  1805               	goto	u721
   710  0053  2855               	goto	u720
   711  0054  2856               u721:
   712  0055                     	goto	l982
   713  0055  2858               u720:
   714  0056                     	line	132
   715                           	
   716                           l980:	
   717  0056                     ;Tunel-New.c: 132:         }
   718                           	fcall	_blijniyOn
   719  0056  2126               	goto	l982
   720  0057  2858               	line	133
   721                           ;Tunel-New.c: 133:     }
   722                           	
   723                           l116:	
   724  0058                     	line	134
   725                           	
   726                           l982:	
   727  0058                     ;Tunel-New.c: 134: }
   728                           	bcf	status, 5	;RP0=0, select bank0
   729  0058  1283               	movf	(_blijOff+1),w
   730  0059  0821               	subwf	(_volt+1),w
   731  005A  022E               	skipz
   732  005B  1D03               	goto	u735
   733  005C  285F               	movf	(_blijOff),w
   734  005D  0820               	subwf	(_volt),w
   735  005E  022D               u735:
   736  005F                     	skipnc
   737  005F  1803               	goto	u731
   738  0060  2862               	goto	u730
   739  0061  2863               u731:
   740  0062                     	goto	l988
   741  0062  2869               u730:
   742  0063                     	
   743                           l984:	
   744  0063                     	btfss	(40/8),(40)&7	;volatile
   745  0063  1C05               	goto	u741
   746  0064  2866               	goto	u740
   747  0065  2867               u741:
   748  0066                     	goto	l988
   749  0066  2869               u740:
   750  0067                     	line	135
   751                           	
   752                           l986:	
   753  0067                     	fcall	_blijniyOff
   754  0067  216A               	goto	l988
   755  0068  2869               	line	136
   756                           	
   757                           l117:	
   758  0069                     	line	137
   759                           	
   760                           l988:	
   761  0069                     	bcf	status, 5	;RP0=0, select bank0
   762  0069  1283               	movf	(_gabOff+1),w
   763  006A  0825               	subwf	(_volt+1),w
   764  006B  022E               	skipz
   765  006C  1D03               	goto	u755
   766  006D  2870               	movf	(_gabOff),w
   767  006E  0824               	subwf	(_volt),w
   768  006F  022D               u755:
   769  0070                     	skipnc
   770  0070  1803               	goto	u751
   771  0071  2873               	goto	u750
   772  0072  2874               u751:
   773  0073                     	goto	l994
   774  0073  287B               u750:
   775  0074                     	
   776                           l990:	
   777  0074                     	btfss	(41/8),(41)&7	;volatile
   778  0074  1C85               	goto	u761
   779  0075  2877               	goto	u760
   780  0076  2878               u761:
   781  0077                     	goto	l994
   782  0077  287B               u760:
   783  0078                     	line	138
   784                           	
   785                           l992:	
   786  0078                     	fcall	_gabaritOff
   787  0078  20E2               	goto	l994
   788  0079  287B               	line	139
   789                           	
   790                           l118:	
   791  007A                     	goto	l994
   792  007A  287B               	line	140
   793                           	
   794                           l113:	
   795  007B                     	line	126
   796                           	
   797                           l994:	
   798  007B                     ;Tunel-New.c: 126:                 sentrZamok();
   799                           	bcf	status, 5	;RP0=0, select bank0
   800  007B  1283               	btfsc	(43/8),(43)&7	;volatile
   801  007C  1985               	goto	u771
   802  007D  287F               	goto	u770
   803  007E  2880               u771:
   804  007F                     	goto	l968
   805  007F  2835               u770:
   806  0080                     	
   807                           l119:	
   808  0080                     	line	141
   809                           	btfsc	(45/8),(45)&7	;volatile
   810  0080  1A85               	goto	u781
   811  0081  2883               	goto	u780
   812  0082  2884               u781:
   813  0083                     	goto	l1002
   814  0083  2893               u780:
   815  0084                     	line	142
   816                           	
   817                           l996:	
   818  0084                     	fcall	_ADC
   819  0084  21D9               	line	143
   820                           	
   821                           l998:	
   822  0085                     	bcf	status, 5	;RP0=0, select bank0
   823  0085  1283               	movf	(_volt+1),w
   824  0086  082E               	subwf	(_gabOn+1),w
   825  0087  0227               	skipz
   826  0088  1D03               	goto	u795
   827  0089  288C               	movf	(_volt),w
   828  008A  082D               	subwf	(_gabOn),w
   829  008B  0226               u795:
   830  008C                     	skipnc
   831  008C  1803               	goto	u791
   832  008D  288F               	goto	u790
   833  008E  2890               u791:
   834  008F                     	goto	l1002
   835  008F  2893               u790:
   836  0090                     	line	144
   837                           	
   838                           l1000:	
   839  0090                     	fcall	_sentrZamok
   840  0090  21A6               	goto	l1002
   841  0091  2893               	line	145
   842                           	
   843                           l121:	
   844  0092                     	goto	l1002
   845  0092  2893               	line	146
   846                           	
   847                           l120:	
   848  0093                     	line	147
   849                           	
   850                           l1002:	
   851  0093                     	bcf	status, 5	;RP0=0, select bank0
   852  0093  1283               	btfss	(42/8),(42)&7	;volatile
   853  0094  1D05               	goto	u801
   854  0095  2897               	goto	u800
   855  0096  2898               u801:
   856  0097                     	goto	l994
   857  0097  287B               u800:
   858  0098                     	line	148
   859                           	
   860                           l1004:	
   861  0098                     	bcf	(41/8),(41)&7	;volatile
   862  0098  1085               	line	149
   863                           	bcf	(40/8),(40)&7	;volatile
   864  0099  1005               	goto	l994
   865  009A  287B               	line	150
   866                           	
   867                           l122:	
   868  009B                     	goto	l994
   869  009B  287B               	line	151
   870                           	
   871                           l123:	
   872  009C                     	goto	l994
   873  009C  287B               	
   874                           l124:	
   875  009D                     	line	152
   876                           	
   877                           l125:	
   878  009D                     	global	start
   879                           	ljmp	start
   880  009D  280B               	opt stack 0
   881                           GLOBAL	__end_of_main
   882                           	__end_of_main:
   883  009E                     	signat	_main,89
   884                           	global	_sentrZamok
   885                           
   886 ;; *************** function _sentrZamok *****************
   887 ;; Defined at:
   888 ;;		line 86 in file "Tunel-New.c"
   889 ;; Parameters:    Size  Location     Type
   890 ;;		None
   891 ;; Auto vars:     Size  Location     Type
   892 ;;		None
   893 ;; Return value:  Size  Location     Type
   894 ;;                  1    wreg      void 
   895 ;; Registers used:
   896 ;;		wreg, status,2
   897 ;; Tracked objects:
   898 ;;		On entry : 0/0
   899 ;;		On exit  : 0/0
   900 ;;		Unchanged: 0/0
   901 ;; Data sizes:     COMMON   BANK0
   902 ;;      Params:         0       0
   903 ;;      Locals:         0       0
   904 ;;      Temps:          0       1
   905 ;;      Totals:         0       1
   906 ;;Total ram usage:        1 bytes
   907 ;; Hardware stack levels used:    1
   908 ;; Hardware stack levels required when called:    1
   909 ;; This function calls:
   910 ;;		Nothing
   911 ;; This function is called by:
   912 ;;		_main
   913 ;; This function uses a non-reentrant model
   914 ;;
   915                           psect	text1,local,class=CODE,delta=2,merge=1,group=0
   916                           	line	86
   917                           global __ptext1
   918                           __ptext1:	;psect for function _sentrZamok
   919  01A6                     psect	text1
   920                           	file	"Tunel-New.c"
   921                           	line	86
   922                           	global	__size_of_sentrZamok
   923                           	__size_of_sentrZamok	equ	__end_of_sentrZamok-_sentrZamok
   924  0033                     	
   925                           _sentrZamok:	
   926  01A6                     ;incstack = 0
   927                           	opt	stack 6
   928                           ; Regs used in _sentrZamok: [wreg+status,2]
   929                           	line	87
   930                           	
   931                           l934:	
   932  01A6                     ;Tunel-New.c: 87:             if (GP2 == 0) {
   933                           	bcf	status, 5	;RP0=0, select bank0
   934  01A6  1283               	bsf	(41/8),(41)&7	;volatile
   935  01A7  1485               	line	88
   936                           ;Tunel-New.c: 88:                 GP1 = 1;
   937                           	bsf	(40/8),(40)&7	;volatile
   938  01A8  1405               	line	89
   939                           	
   940                           l936:	
   941  01A9                     ;Tunel-New.c: 89:             } else {
   942                           	clrf	(_i)
   943  01A9  01AF               	clrf	(_i+1)
   944  01AA  01B0               	
   945                           l938:	
   946  01AB                     	movlw	023h
   947  01AB  3023               	subwf	(_i+1),w
   948  01AC  0230               	movlw	029h
   949  01AD  3029               	skipnz
   950  01AE  1903               	subwf	(_i),w
   951  01AF  022F               	skipc
   952  01B0  1C03               	goto	u621
   953  01B1  29B3               	goto	u620
   954  01B2  29B4               u621:
   955  01B3                     	goto	l91
   956  01B3  29B6               u620:
   957  01B4                     	goto	l92
   958  01B4  29D6               	
   959                           l940:	
   960  01B5                     	goto	l92
   961  01B5  29D6               	
   962                           l91:	
   963  01B6                     	line	90
   964                           ;Tunel-New.c: 90:                 GP1 = 0;
   965                           	btfss	(43/8),(43)&7	;volatile
   966  01B6  1D85               	goto	u631
   967  01B7  29B9               	goto	u630
   968  01B8  29BA               u631:
   969  01B9                     	goto	l944
   970  01B9  29BF               u630:
   971  01BA                     	line	91
   972                           	
   973                           l942:	
   974  01BA                     ;Tunel-New.c: 91:             }
   975                           	movlw	028h
   976  01BA  3028               	movwf	(_i)
   977  01BB  00AF               	movlw	023h
   978  01BC  3023               	movwf	((_i))+1
   979  01BD  00B0               	line	92
   980                           ;Tunel-New.c: 92:         }
   981                           	goto	l94
   982  01BE  29C6               	
   983                           l93:	
   984  01BF                     	line	93
   985                           	
   986                           l944:	
   987  01BF                     ;Tunel-New.c: 93:         if (GP2 == 0) {
   988                           	opt asmopt_push
   989                           opt asmopt_off
   990                           	movlw	199
   991  01BF  30C7               movwf	((??_sentrZamok+0)+0),f
   992  01C0  00AA               	u817:
   993  01C1                     	nop2
   994  01C1  29C2               decfsz	(??_sentrZamok+0)+0,f
   995  01C2  0BAA               	goto	u817
   996  01C3  29C1               	nop2
   997  01C4  29C5               	nop2
   998  01C5  29C6               opt asmopt_pop
   999                           
  1000                           	line	94
  1001                           ;Tunel-New.c: 94:             GP1 = 1;
  1002                           	
  1003                           l94:	
  1004  01C6                     	line	95
  1005                           ;Tunel-New.c: 95:         }
  1006                           	movlw	01h
  1007  01C6  3001               	bcf	status, 5	;RP0=0, select bank0
  1008  01C7  1283               	addwf	(_i),f
  1009  01C8  07AF               	skipnc
  1010  01C9  1803               	incf	(_i+1),f
  1011  01CA  0AB0               	movlw	0
  1012  01CB  3000               	addwf	(_i+1),f
  1013  01CC  07B0               	movlw	023h
  1014  01CD  3023               	subwf	(_i+1),w
  1015  01CE  0230               	movlw	029h
  1016  01CF  3029               	skipnz
  1017  01D0  1903               	subwf	(_i),w
  1018  01D1  022F               	skipc
  1019  01D2  1C03               	goto	u641
  1020  01D3  29D5               	goto	u640
  1021  01D4  29D6               u641:
  1022  01D5                     	goto	l91
  1023  01D5  29B6               u640:
  1024  01D6                     	
  1025                           l92:	
  1026  01D6                     	line	96
  1027                           ;Tunel-New.c: 96:     }
  1028                           	bcf	(41/8),(41)&7	;volatile
  1029  01D6  1085               	line	97
  1030                           ;Tunel-New.c: 97: }
  1031                           	bcf	(40/8),(40)&7	;volatile
  1032  01D7  1005               	line	98
  1033                           	
  1034                           l95:	
  1035  01D8                     	return
  1036  01D8  0008               	opt stack 0
  1037                           GLOBAL	__end_of_sentrZamok
  1038                           	__end_of_sentrZamok:
  1039  01D9                     	signat	_sentrZamok,89
  1040                           	global	_gabaritOn
  1041                           
  1042 ;; *************** function _gabaritOn *****************
  1043 ;; Defined at:
  1044 ;;		line 35 in file "Tunel-New.c"
  1045 ;; Parameters:    Size  Location     Type
  1046 ;;		None
  1047 ;; Auto vars:     Size  Location     Type
  1048 ;;		None
  1049 ;; Return value:  Size  Location     Type
  1050 ;;                  1    wreg      void 
  1051 ;; Registers used:
  1052 ;;		wreg, status,2, status,0, pclath, cstack
  1053 ;; Tracked objects:
  1054 ;;		On entry : 0/0
  1055 ;;		On exit  : 0/0
  1056 ;;		Unchanged: 0/0
  1057 ;; Data sizes:     COMMON   BANK0
  1058 ;;      Params:         0       0
  1059 ;;      Locals:         0       0
  1060 ;;      Temps:          0       1
  1061 ;;      Totals:         0       1
  1062 ;;Total ram usage:        1 bytes
  1063 ;; Hardware stack levels used:    1
  1064 ;; Hardware stack levels required when called:    2
  1065 ;; This function calls:
  1066 ;;		_ADC
  1067 ;; This function is called by:
  1068 ;;		_main
  1069 ;; This function uses a non-reentrant model
  1070 ;;
  1071                           psect	text2,local,class=CODE,delta=2,merge=1,group=0
  1072                           	line	35
  1073                           global __ptext2
  1074                           __ptext2:	;psect for function _gabaritOn
  1075  009E                     psect	text2
  1076                           	file	"Tunel-New.c"
  1077                           	line	35
  1078                           	global	__size_of_gabaritOn
  1079                           	__size_of_gabaritOn	equ	__end_of_gabaritOn-_gabaritOn
  1080  0044                     	
  1081                           _gabaritOn:	
  1082  009E                     ;incstack = 0
  1083                           	opt	stack 5
  1084                           ; Regs used in _gabaritOn: [wreg+status,2+status,0+pclath+cstack]
  1085                           	line	36
  1086                           	
  1087                           l862:	
  1088  009E                     ;Tunel-New.c: 36:         _delay((unsigned long)((1)*(4000000/4000.0)));
  1089                           	bcf	status, 5	;RP0=0, select bank0
  1090  009E  1283               	clrf	(_i)
  1091  009F  01AF               	clrf	(_i+1)
  1092  00A0  01B0               	
  1093                           l864:	
  1094  00A1                     	movlw	0
  1095  00A1  3000               	subwf	(_i+1),w
  1096  00A2  0230               	movlw	0ECh
  1097  00A3  30EC               	skipnz
  1098  00A4  1903               	subwf	(_i),w
  1099  00A5  022F               	skipc
  1100  00A6  1C03               	goto	u421
  1101  00A7  28A9               	goto	u420
  1102  00A8  28AA               u421:
  1103  00A9                     	goto	l868
  1104  00A9  28AC               u420:
  1105  00AA                     	goto	l876
  1106  00AA  28D5               	
  1107                           l866:	
  1108  00AB                     	goto	l876
  1109  00AB  28D5               	
  1110                           l55:	
  1111  00AC                     	line	37
  1112                           	
  1113                           l868:	
  1114  00AC                     ;Tunel-New.c: 37:     }
  1115                           	fcall	_ADC
  1116  00AC  21D9               	line	38
  1117                           	
  1118                           l870:	
  1119  00AD                     ;Tunel-New.c: 38:     if (volt < gabOff) {
  1120                           	bcf	status, 5	;RP0=0, select bank0
  1121  00AD  1283               	btfss	(43/8),(43)&7	;volatile
  1122  00AE  1D85               	goto	u431
  1123  00AF  28B1               	goto	u430
  1124  00B0  28B2               u431:
  1125  00B1                     	goto	l60
  1126  00B1  28E1               u430:
  1127  00B2                     	
  1128                           l872:	
  1129  00B2                     	movlw	0
  1130  00B2  3000               	subwf	(_volt+1),w
  1131  00B3  022E               	movlw	028h
  1132  00B4  3028               	skipnz
  1133  00B5  1903               	subwf	(_volt),w
  1134  00B6  022D               	skipnc
  1135  00B7  1803               	goto	u441
  1136  00B8  28BA               	goto	u440
  1137  00B9  28BB               u441:
  1138  00BA                     	goto	l874
  1139  00BA  28BD               u440:
  1140  00BB                     	goto	l60
  1141  00BB  28E1               	
  1142                           l59:	
  1143  00BC                     	line	39
  1144                           ;Tunel-New.c: 39:         GP1 = 0;
  1145                           	goto	l60
  1146  00BC  28E1               	line	40
  1147                           ;Tunel-New.c: 40:     }
  1148                           	
  1149                           l57:	
  1150  00BD                     	line	41
  1151                           	
  1152                           l874:	
  1153  00BD                     ;Tunel-New.c: 41: }
  1154                           	opt asmopt_push
  1155                           opt asmopt_off
  1156                           	movlw	199
  1157  00BD  30C7               movwf	((??_gabaritOn+0)+0),f
  1158  00BE  00AC               	u827:
  1159  00BF                     	nop2
  1160  00BF  28C0               decfsz	(??_gabaritOn+0)+0,f
  1161  00C0  0BAC               	goto	u827
  1162  00C1  28BF               	nop2
  1163  00C2  28C3               	nop2
  1164  00C3  28C4               opt asmopt_pop
  1165                           
  1166                           	line	42
  1167                           ;Tunel-New.c: 42: 
  1168                           	movlw	01h
  1169  00C4  3001               	bcf	status, 5	;RP0=0, select bank0
  1170  00C5  1283               	addwf	(_i),f
  1171  00C6  07AF               	skipnc
  1172  00C7  1803               	incf	(_i+1),f
  1173  00C8  0AB0               	movlw	0
  1174  00C9  3000               	addwf	(_i+1),f
  1175  00CA  07B0               	movlw	0
  1176  00CB  3000               	subwf	(_i+1),w
  1177  00CC  0230               	movlw	0ECh
  1178  00CD  30EC               	skipnz
  1179  00CE  1903               	subwf	(_i),w
  1180  00CF  022F               	skipc
  1181  00D0  1C03               	goto	u451
  1182  00D1  28D3               	goto	u450
  1183  00D2  28D4               u451:
  1184  00D3                     	goto	l868
  1185  00D3  28AC               u450:
  1186  00D4                     	goto	l876
  1187  00D4  28D5               	
  1188                           l56:	
  1189  00D5                     	line	43
  1190                           	
  1191                           l876:	
  1192  00D5                     ;Tunel-New.c: 43: void blijniyOn() {
  1193                           	movf	(_volt+1),w
  1194  00D5  082E               	subwf	(_gabOn+1),w
  1195  00D6  0227               	skipz
  1196  00D7  1D03               	goto	u465
  1197  00D8  28DB               	movf	(_volt),w
  1198  00D9  082D               	subwf	(_gabOn),w
  1199  00DA  0226               u465:
  1200  00DB                     	skipnc
  1201  00DB  1803               	goto	u461
  1202  00DC  28DE               	goto	u460
  1203  00DD  28DF               u461:
  1204  00DE                     	goto	l60
  1205  00DE  28E1               u460:
  1206  00DF                     	line	44
  1207                           	
  1208                           l878:	
  1209  00DF                     ;Tunel-New.c: 44:     for (i = 0; i <= 235; i++) {
  1210                           	bsf	(41/8),(41)&7	;volatile
  1211  00DF  1485               	goto	l60
  1212  00E0  28E1               	line	45
  1213                           ;Tunel-New.c: 45:         ADC();
  1214                           	
  1215                           l61:	
  1216  00E1                     	line	46
  1217                           	
  1218                           l60:	
  1219  00E1                     	return
  1220  00E1  0008               	opt stack 0
  1221                           GLOBAL	__end_of_gabaritOn
  1222                           	__end_of_gabaritOn:
  1223  00E2                     	signat	_gabaritOn,89
  1224                           	global	_gabaritOff
  1225                           
  1226 ;; *************** function _gabaritOff *****************
  1227 ;; Defined at:
  1228 ;;		line 48 in file "Tunel-New.c"
  1229 ;; Parameters:    Size  Location     Type
  1230 ;;		None
  1231 ;; Auto vars:     Size  Location     Type
  1232 ;;		None
  1233 ;; Return value:  Size  Location     Type
  1234 ;;                  1    wreg      void 
  1235 ;; Registers used:
  1236 ;;		wreg, status,2, status,0, pclath, cstack
  1237 ;; Tracked objects:
  1238 ;;		On entry : 0/0
  1239 ;;		On exit  : 0/0
  1240 ;;		Unchanged: 0/0
  1241 ;; Data sizes:     COMMON   BANK0
  1242 ;;      Params:         0       0
  1243 ;;      Locals:         0       0
  1244 ;;      Temps:          0       1
  1245 ;;      Totals:         0       1
  1246 ;;Total ram usage:        1 bytes
  1247 ;; Hardware stack levels used:    1
  1248 ;; Hardware stack levels required when called:    2
  1249 ;; This function calls:
  1250 ;;		_ADC
  1251 ;; This function is called by:
  1252 ;;		_main
  1253 ;; This function uses a non-reentrant model
  1254 ;;
  1255                           psect	text3,local,class=CODE,delta=2,merge=1,group=0
  1256                           	line	48
  1257                           global __ptext3
  1258                           __ptext3:	;psect for function _gabaritOff
  1259  00E2                     psect	text3
  1260                           	file	"Tunel-New.c"
  1261                           	line	48
  1262                           	global	__size_of_gabaritOff
  1263                           	__size_of_gabaritOff	equ	__end_of_gabaritOff-_gabaritOff
  1264  0044                     	
  1265                           _gabaritOff:	
  1266  00E2                     ;incstack = 0
  1267                           	opt	stack 5
  1268                           ; Regs used in _gabaritOff: [wreg+status,2+status,0+pclath+cstack]
  1269                           	line	49
  1270                           	
  1271                           l880:	
  1272  00E2                     ;Tunel-New.c: 49:         _delay((unsigned long)((1)*(4000000/4000.0)));
  1273                           	bcf	status, 5	;RP0=0, select bank0
  1274  00E2  1283               	clrf	(_i)
  1275  00E3  01AF               	clrf	(_i+1)
  1276  00E4  01B0               	
  1277                           l882:	
  1278  00E5                     	movlw	0
  1279  00E5  3000               	subwf	(_i+1),w
  1280  00E6  0230               	movlw	0ECh
  1281  00E7  30EC               	skipnz
  1282  00E8  1903               	subwf	(_i),w
  1283  00E9  022F               	skipc
  1284  00EA  1C03               	goto	u471
  1285  00EB  28ED               	goto	u470
  1286  00EC  28EE               u471:
  1287  00ED                     	goto	l886
  1288  00ED  28F0               u470:
  1289  00EE                     	goto	l894
  1290  00EE  2919               	
  1291                           l884:	
  1292  00EF                     	goto	l894
  1293  00EF  2919               	
  1294                           l64:	
  1295  00F0                     	line	50
  1296                           	
  1297                           l886:	
  1298  00F0                     ;Tunel-New.c: 50:     }
  1299                           	fcall	_ADC
  1300  00F0  21D9               	line	51
  1301                           	
  1302                           l888:	
  1303  00F1                     ;Tunel-New.c: 51:     if (volt > blijOn) {
  1304                           	bcf	status, 5	;RP0=0, select bank0
  1305  00F1  1283               	btfss	(43/8),(43)&7	;volatile
  1306  00F2  1D85               	goto	u481
  1307  00F3  28F5               	goto	u480
  1308  00F4  28F6               u481:
  1309  00F5                     	goto	l69
  1310  00F5  2925               u480:
  1311  00F6                     	
  1312                           l890:	
  1313  00F6                     	movlw	0
  1314  00F6  3000               	subwf	(_volt+1),w
  1315  00F7  022E               	movlw	031h
  1316  00F8  3031               	skipnz
  1317  00F9  1903               	subwf	(_volt),w
  1318  00FA  022D               	skipc
  1319  00FB  1C03               	goto	u491
  1320  00FC  28FE               	goto	u490
  1321  00FD  28FF               u491:
  1322  00FE                     	goto	l892
  1323  00FE  2901               u490:
  1324  00FF                     	goto	l69
  1325  00FF  2925               	
  1326                           l68:	
  1327  0100                     	line	52
  1328                           ;Tunel-New.c: 52:         GP0 = 1;
  1329                           	goto	l69
  1330  0100  2925               	line	53
  1331                           ;Tunel-New.c: 53:     }
  1332                           	
  1333                           l66:	
  1334  0101                     	line	54
  1335                           	
  1336                           l892:	
  1337  0101                     ;Tunel-New.c: 54: }
  1338                           	opt asmopt_push
  1339                           opt asmopt_off
  1340                           	movlw	199
  1341  0101  30C7               movwf	((??_gabaritOff+0)+0),f
  1342  0102  00AC               	u837:
  1343  0103                     	nop2
  1344  0103  2904               decfsz	(??_gabaritOff+0)+0,f
  1345  0104  0BAC               	goto	u837
  1346  0105  2903               	nop2
  1347  0106  2907               	nop2
  1348  0107  2908               opt asmopt_pop
  1349                           
  1350                           	line	55
  1351                           ;Tunel-New.c: 55: 
  1352                           	movlw	01h
  1353  0108  3001               	bcf	status, 5	;RP0=0, select bank0
  1354  0109  1283               	addwf	(_i),f
  1355  010A  07AF               	skipnc
  1356  010B  1803               	incf	(_i+1),f
  1357  010C  0AB0               	movlw	0
  1358  010D  3000               	addwf	(_i+1),f
  1359  010E  07B0               	movlw	0
  1360  010F  3000               	subwf	(_i+1),w
  1361  0110  0230               	movlw	0ECh
  1362  0111  30EC               	skipnz
  1363  0112  1903               	subwf	(_i),w
  1364  0113  022F               	skipc
  1365  0114  1C03               	goto	u501
  1366  0115  2917               	goto	u500
  1367  0116  2918               u501:
  1368  0117                     	goto	l886
  1369  0117  28F0               u500:
  1370  0118                     	goto	l894
  1371  0118  2919               	
  1372                           l65:	
  1373  0119                     	line	56
  1374                           	
  1375                           l894:	
  1376  0119                     ;Tunel-New.c: 56: void blijniyOff() {
  1377                           	movf	(_gabOff+1),w
  1378  0119  0825               	subwf	(_volt+1),w
  1379  011A  022E               	skipz
  1380  011B  1D03               	goto	u515
  1381  011C  291F               	movf	(_gabOff),w
  1382  011D  0824               	subwf	(_volt),w
  1383  011E  022D               u515:
  1384  011F                     	skipnc
  1385  011F  1803               	goto	u511
  1386  0120  2922               	goto	u510
  1387  0121  2923               u511:
  1388  0122                     	goto	l69
  1389  0122  2925               u510:
  1390  0123                     	line	57
  1391                           	
  1392                           l896:	
  1393  0123                     ;Tunel-New.c: 57:     for (i = 0; i <= 235; i++) {
  1394                           	bcf	(41/8),(41)&7	;volatile
  1395  0123  1085               	goto	l69
  1396  0124  2925               	line	58
  1397                           ;Tunel-New.c: 58:         ADC();
  1398                           	
  1399                           l70:	
  1400  0125                     	line	59
  1401                           	
  1402                           l69:	
  1403  0125                     	return
  1404  0125  0008               	opt stack 0
  1405                           GLOBAL	__end_of_gabaritOff
  1406                           	__end_of_gabaritOff:
  1407  0126                     	signat	_gabaritOff,89
  1408                           	global	_blijniyOn
  1409                           
  1410 ;; *************** function _blijniyOn *****************
  1411 ;; Defined at:
  1412 ;;		line 61 in file "Tunel-New.c"
  1413 ;; Parameters:    Size  Location     Type
  1414 ;;		None
  1415 ;; Auto vars:     Size  Location     Type
  1416 ;;		None
  1417 ;; Return value:  Size  Location     Type
  1418 ;;                  1    wreg      void 
  1419 ;; Registers used:
  1420 ;;		wreg, status,2, status,0, pclath, cstack
  1421 ;; Tracked objects:
  1422 ;;		On entry : 0/0
  1423 ;;		On exit  : 0/0
  1424 ;;		Unchanged: 0/0
  1425 ;; Data sizes:     COMMON   BANK0
  1426 ;;      Params:         0       0
  1427 ;;      Locals:         0       0
  1428 ;;      Temps:          0       1
  1429 ;;      Totals:         0       1
  1430 ;;Total ram usage:        1 bytes
  1431 ;; Hardware stack levels used:    1
  1432 ;; Hardware stack levels required when called:    2
  1433 ;; This function calls:
  1434 ;;		_ADC
  1435 ;; This function is called by:
  1436 ;;		_main
  1437 ;; This function uses a non-reentrant model
  1438 ;;
  1439                           psect	text4,local,class=CODE,delta=2,merge=1,group=0
  1440                           	line	61
  1441                           global __ptext4
  1442                           __ptext4:	;psect for function _blijniyOn
  1443  0126                     psect	text4
  1444                           	file	"Tunel-New.c"
  1445                           	line	61
  1446                           	global	__size_of_blijniyOn
  1447                           	__size_of_blijniyOn	equ	__end_of_blijniyOn-_blijniyOn
  1448  0044                     	
  1449                           _blijniyOn:	
  1450  0126                     ;incstack = 0
  1451                           	opt	stack 5
  1452                           ; Regs used in _blijniyOn: [wreg+status,2+status,0+pclath+cstack]
  1453                           	line	62
  1454                           	
  1455                           l898:	
  1456  0126                     ;Tunel-New.c: 62:     }
  1457                           	bcf	status, 5	;RP0=0, select bank0
  1458  0126  1283               	clrf	(_i)
  1459  0127  01AF               	clrf	(_i+1)
  1460  0128  01B0               	
  1461                           l900:	
  1462  0129                     	movlw	0
  1463  0129  3000               	subwf	(_i+1),w
  1464  012A  0230               	movlw	0ECh
  1465  012B  30EC               	skipnz
  1466  012C  1903               	subwf	(_i),w
  1467  012D  022F               	skipc
  1468  012E  1C03               	goto	u521
  1469  012F  2931               	goto	u520
  1470  0130  2932               u521:
  1471  0131                     	goto	l904
  1472  0131  2934               u520:
  1473  0132                     	goto	l912
  1474  0132  295D               	
  1475                           l902:	
  1476  0133                     	goto	l912
  1477  0133  295D               	
  1478                           l73:	
  1479  0134                     	line	63
  1480                           	
  1481                           l904:	
  1482  0134                     ;Tunel-New.c: 63:     if (volt < blijOff) {
  1483                           	fcall	_ADC
  1484  0134  21D9               	line	64
  1485                           	
  1486                           l906:	
  1487  0135                     ;Tunel-New.c: 64:         GP0 = 0;
  1488                           	bcf	status, 5	;RP0=0, select bank0
  1489  0135  1283               	btfss	(43/8),(43)&7	;volatile
  1490  0136  1D85               	goto	u531
  1491  0137  2939               	goto	u530
  1492  0138  293A               u531:
  1493  0139                     	goto	l78
  1494  0139  2969               u530:
  1495  013A                     	
  1496                           l908:	
  1497  013A                     	movlw	0
  1498  013A  3000               	subwf	(_volt+1),w
  1499  013B  022E               	movlw	05Ah
  1500  013C  305A               	skipnz
  1501  013D  1903               	subwf	(_volt),w
  1502  013E  022D               	skipnc
  1503  013F  1803               	goto	u541
  1504  0140  2942               	goto	u540
  1505  0141  2943               u541:
  1506  0142                     	goto	l910
  1507  0142  2945               u540:
  1508  0143                     	goto	l78
  1509  0143  2969               	
  1510                           l77:	
  1511  0144                     	line	65
  1512                           ;Tunel-New.c: 65:     }
  1513                           	goto	l78
  1514  0144  2969               	line	66
  1515                           ;Tunel-New.c: 66: }
  1516                           	
  1517                           l75:	
  1518  0145                     	line	67
  1519                           	
  1520                           l910:	
  1521  0145                     ;Tunel-New.c: 67: 
  1522                           	opt asmopt_push
  1523                           opt asmopt_off
  1524                           	movlw	199
  1525  0145  30C7               movwf	((??_blijniyOn+0)+0),f
  1526  0146  00AC               	u847:
  1527  0147                     	nop2
  1528  0147  2948               decfsz	(??_blijniyOn+0)+0,f
  1529  0148  0BAC               	goto	u847
  1530  0149  2947               	nop2
  1531  014A  294B               	nop2
  1532  014B  294C               opt asmopt_pop
  1533                           
  1534                           	line	68
  1535                           ;Tunel-New.c: 68: void sentrZamok() {
  1536                           	movlw	01h
  1537  014C  3001               	bcf	status, 5	;RP0=0, select bank0
  1538  014D  1283               	addwf	(_i),f
  1539  014E  07AF               	skipnc
  1540  014F  1803               	incf	(_i+1),f
  1541  0150  0AB0               	movlw	0
  1542  0151  3000               	addwf	(_i+1),f
  1543  0152  07B0               	movlw	0
  1544  0153  3000               	subwf	(_i+1),w
  1545  0154  0230               	movlw	0ECh
  1546  0155  30EC               	skipnz
  1547  0156  1903               	subwf	(_i),w
  1548  0157  022F               	skipc
  1549  0158  1C03               	goto	u551
  1550  0159  295B               	goto	u550
  1551  015A  295C               u551:
  1552  015B                     	goto	l904
  1553  015B  2934               u550:
  1554  015C                     	goto	l912
  1555  015C  295D               	
  1556                           l74:	
  1557  015D                     	line	69
  1558                           	
  1559                           l912:	
  1560  015D                     ;Tunel-New.c: 69:     GP1 = 1;
  1561                           	movf	(_volt+1),w
  1562  015D  082E               	subwf	(_blijOn+1),w
  1563  015E  0223               	skipz
  1564  015F  1D03               	goto	u565
  1565  0160  2963               	movf	(_volt),w
  1566  0161  082D               	subwf	(_blijOn),w
  1567  0162  0222               u565:
  1568  0163                     	skipnc
  1569  0163  1803               	goto	u561
  1570  0164  2966               	goto	u560
  1571  0165  2967               u561:
  1572  0166                     	goto	l78
  1573  0166  2969               u560:
  1574  0167                     	line	70
  1575                           	
  1576                           l914:	
  1577  0167                     ;Tunel-New.c: 70:     GP0 = 1;
  1578                           	bsf	(40/8),(40)&7	;volatile
  1579  0167  1405               	goto	l78
  1580  0168  2969               	line	71
  1581                           ;Tunel-New.c: 71:     for (i = 0; i <= 9000; i++) {
  1582                           	
  1583                           l79:	
  1584  0169                     	line	72
  1585                           	
  1586                           l78:	
  1587  0169                     	return
  1588  0169  0008               	opt stack 0
  1589                           GLOBAL	__end_of_blijniyOn
  1590                           	__end_of_blijniyOn:
  1591  016A                     	signat	_blijniyOn,89
  1592                           	global	_blijniyOff
  1593                           
  1594 ;; *************** function _blijniyOff *****************
  1595 ;; Defined at:
  1596 ;;		line 74 in file "Tunel-New.c"
  1597 ;; Parameters:    Size  Location     Type
  1598 ;;		None
  1599 ;; Auto vars:     Size  Location     Type
  1600 ;;		None
  1601 ;; Return value:  Size  Location     Type
  1602 ;;                  1    wreg      void 
  1603 ;; Registers used:
  1604 ;;		wreg, status,2, status,0, pclath, cstack
  1605 ;; Tracked objects:
  1606 ;;		On entry : 0/0
  1607 ;;		On exit  : 0/0
  1608 ;;		Unchanged: 0/0
  1609 ;; Data sizes:     COMMON   BANK0
  1610 ;;      Params:         0       0
  1611 ;;      Locals:         0       0
  1612 ;;      Temps:          0       0
  1613 ;;      Totals:         0       0
  1614 ;;Total ram usage:        0 bytes
  1615 ;; Hardware stack levels used:    1
  1616 ;; Hardware stack levels required when called:    2
  1617 ;; This function calls:
  1618 ;;		_ADC
  1619 ;; This function is called by:
  1620 ;;		_main
  1621 ;; This function uses a non-reentrant model
  1622 ;;
  1623                           psect	text5,local,class=CODE,delta=2,merge=1,group=0
  1624                           	line	74
  1625                           global __ptext5
  1626                           __ptext5:	;psect for function _blijniyOff
  1627  016A                     psect	text5
  1628                           	file	"Tunel-New.c"
  1629                           	line	74
  1630                           	global	__size_of_blijniyOff
  1631                           	__size_of_blijniyOff	equ	__end_of_blijniyOff-_blijniyOff
  1632  003C                     	
  1633                           _blijniyOff:	
  1634  016A                     ;incstack = 0
  1635                           	opt	stack 5
  1636                           ; Regs used in _blijniyOff: [wreg+status,2+status,0+pclath+cstack]
  1637                           	line	75
  1638                           	
  1639                           l916:	
  1640  016A                     ;Tunel-New.c: 75:             _delay((unsigned long)((1)*(4000000/4000.0)));
  1641                           	bcf	status, 5	;RP0=0, select bank0
  1642  016A  1283               	clrf	(_i)
  1643  016B  01AF               	clrf	(_i+1)
  1644  016C  01B0               	
  1645                           l918:	
  1646  016D                     	movlw	0
  1647  016D  3000               	subwf	(_i+1),w
  1648  016E  0230               	movlw	0ECh
  1649  016F  30EC               	skipnz
  1650  0170  1903               	subwf	(_i),w
  1651  0171  022F               	skipc
  1652  0172  1C03               	goto	u571
  1653  0173  2975               	goto	u570
  1654  0174  2976               u571:
  1655  0175                     	goto	l922
  1656  0175  2978               u570:
  1657  0176                     	goto	l930
  1658  0176  2999               	
  1659                           l920:	
  1660  0177                     	goto	l930
  1661  0177  2999               	
  1662                           l82:	
  1663  0178                     	line	76
  1664                           	
  1665                           l922:	
  1666  0178                     ;Tunel-New.c: 76:         }
  1667                           	fcall	_ADC
  1668  0178  21D9               	line	77
  1669                           	
  1670                           l924:	
  1671  0179                     ;Tunel-New.c: 77:     }
  1672                           	bcf	status, 5	;RP0=0, select bank0
  1673  0179  1283               	btfss	(43/8),(43)&7	;volatile
  1674  017A  1D85               	goto	u581
  1675  017B  297D               	goto	u580
  1676  017C  297E               u581:
  1677  017D                     	goto	l87
  1678  017D  29A5               u580:
  1679  017E                     	
  1680                           l926:	
  1681  017E                     	movlw	0
  1682  017E  3000               	subwf	(_volt+1),w
  1683  017F  022E               	movlw	033h
  1684  0180  3033               	skipnz
  1685  0181  1903               	subwf	(_volt),w
  1686  0182  022D               	skipc
  1687  0183  1C03               	goto	u591
  1688  0184  2986               	goto	u590
  1689  0185  2987               u591:
  1690  0186                     	goto	l928
  1691  0186  2989               u590:
  1692  0187                     	goto	l87
  1693  0187  29A5               	
  1694                           l86:	
  1695  0188                     	line	78
  1696                           ;Tunel-New.c: 78:     GP1 = 0;
  1697                           	goto	l87
  1698  0188  29A5               	line	79
  1699                           ;Tunel-New.c: 79:     GP0 = 0;
  1700                           	
  1701                           l84:	
  1702  0189                     	line	80
  1703                           	
  1704                           l928:	
  1705  0189                     ;Tunel-New.c: 80: }
  1706                           	movlw	01h
  1707  0189  3001               	addwf	(_i),f
  1708  018A  07AF               	skipnc
  1709  018B  1803               	incf	(_i+1),f
  1710  018C  0AB0               	movlw	0
  1711  018D  3000               	addwf	(_i+1),f
  1712  018E  07B0               	movlw	0
  1713  018F  3000               	subwf	(_i+1),w
  1714  0190  0230               	movlw	0ECh
  1715  0191  30EC               	skipnz
  1716  0192  1903               	subwf	(_i),w
  1717  0193  022F               	skipc
  1718  0194  1C03               	goto	u601
  1719  0195  2997               	goto	u600
  1720  0196  2998               u601:
  1721  0197                     	goto	l922
  1722  0197  2978               u600:
  1723  0198                     	goto	l930
  1724  0198  2999               	
  1725                           l83:	
  1726  0199                     	line	81
  1727                           	
  1728                           l930:	
  1729  0199                     ;Tunel-New.c: 81: 
  1730                           	movf	(_blijOff+1),w
  1731  0199  0821               	subwf	(_volt+1),w
  1732  019A  022E               	skipz
  1733  019B  1D03               	goto	u615
  1734  019C  299F               	movf	(_blijOff),w
  1735  019D  0820               	subwf	(_volt),w
  1736  019E  022D               u615:
  1737  019F                     	skipnc
  1738  019F  1803               	goto	u611
  1739  01A0  29A2               	goto	u610
  1740  01A1  29A3               u611:
  1741  01A2                     	goto	l87
  1742  01A2  29A5               u610:
  1743  01A3                     	line	82
  1744                           	
  1745                           l932:	
  1746  01A3                     ;Tunel-New.c: 82: void __attribute__((picinterrupt(""))) isr() {
  1747                           	bcf	(40/8),(40)&7	;volatile
  1748  01A3  1005               	goto	l87
  1749  01A4  29A5               	line	83
  1750                           ;Tunel-New.c: 83:     if (INTF) {
  1751                           	
  1752                           l88:	
  1753  01A5                     	line	84
  1754                           	
  1755                           l87:	
  1756  01A5                     	return
  1757  01A5  0008               	opt stack 0
  1758                           GLOBAL	__end_of_blijniyOff
  1759                           	__end_of_blijniyOff:
  1760  01A6                     	signat	_blijniyOff,89
  1761                           	global	_ADC
  1762                           
  1763 ;; *************** function _ADC *****************
  1764 ;; Defined at:
  1765 ;;		line 25 in file "Tunel-New.c"
  1766 ;; Parameters:    Size  Location     Type
  1767 ;;		None
  1768 ;; Auto vars:     Size  Location     Type
  1769 ;;		None
  1770 ;; Return value:  Size  Location     Type
  1771 ;;                  1    wreg      void 
  1772 ;; Registers used:
  1773 ;;		wreg
  1774 ;; Tracked objects:
  1775 ;;		On entry : 0/0
  1776 ;;		On exit  : 0/0
  1777 ;;		Unchanged: 0/0
  1778 ;; Data sizes:     COMMON   BANK0
  1779 ;;      Params:         0       0
  1780 ;;      Locals:         0       0
  1781 ;;      Temps:          0       2
  1782 ;;      Totals:         0       2
  1783 ;;Total ram usage:        2 bytes
  1784 ;; Hardware stack levels used:    1
  1785 ;; Hardware stack levels required when called:    1
  1786 ;; This function calls:
  1787 ;;		Nothing
  1788 ;; This function is called by:
  1789 ;;		_gabaritOn
  1790 ;;		_gabaritOff
  1791 ;;		_blijniyOn
  1792 ;;		_blijniyOff
  1793 ;;		_main
  1794 ;; This function uses a non-reentrant model
  1795 ;;
  1796                           psect	text6,local,class=CODE,delta=2,merge=1,group=0
  1797                           	line	25
  1798                           global __ptext6
  1799                           __ptext6:	;psect for function _ADC
  1800  01D9                     psect	text6
  1801                           	file	"Tunel-New.c"
  1802                           	line	25
  1803                           	global	__size_of_ADC
  1804                           	__size_of_ADC	equ	__end_of_ADC-_ADC
  1805  0026                     	
  1806                           _ADC:	
  1807  01D9                     ;incstack = 0
  1808                           	opt	stack 5
  1809                           ; Regs used in _ADC: [wreg]
  1810                           	line	26
  1811                           	
  1812                           l852:	
  1813  01D9                     ;Tunel-New.c: 26:         GP1 = 1;
  1814                           	opt asmopt_push
  1815                           opt asmopt_off
  1816                           movlw	3
  1817  01D9  3003               	bcf	status, 5	;RP0=0, select bank0
  1818  01DA  1283               movwf	((??_ADC+0)+0+1),f
  1819  01DB  00AB               	movlw	151
  1820  01DC  3097               movwf	((??_ADC+0)+0),f
  1821  01DD  00AA               	u857:
  1822  01DE                     decfsz	((??_ADC+0)+0),f
  1823  01DE  0BAA               	goto	u857
  1824  01DF  29DE               	decfsz	((??_ADC+0)+0+1),f
  1825  01E0  0BAB               	goto	u857
  1826  01E1  29DE               	nop2
  1827  01E2  29E3               opt asmopt_pop
  1828                           
  1829                           	line	27
  1830                           	
  1831                           l854:	
  1832  01E3                     ;Tunel-New.c: 27:     }
  1833                           	bcf	status, 5	;RP0=0, select bank0
  1834  01E3  1283               	bsf	(248/8),(248)&7	;volatile
  1835  01E4  141F               	line	28
  1836                           ;Tunel-New.c: 28: }
  1837                           	opt asmopt_push
  1838                           opt asmopt_off
  1839                           movlw	20
  1840  01E5  3014               movwf	((??_ADC+0)+0+1),f
  1841  01E6  00AB               	movlw	121
  1842  01E7  3079               movwf	((??_ADC+0)+0),f
  1843  01E8  00AA               	u867:
  1844  01E9                     decfsz	((??_ADC+0)+0),f
  1845  01E9  0BAA               	goto	u867
  1846  01EA  29E9               	decfsz	((??_ADC+0)+0+1),f
  1847  01EB  0BAB               	goto	u867
  1848  01EC  29E9               	nop2
  1849  01ED  29EE               opt asmopt_pop
  1850                           
  1851                           	line	29
  1852                           	
  1853                           l856:	
  1854  01EE                     ;Tunel-New.c: 29: 
  1855                           	bcf	status, 5	;RP0=0, select bank0
  1856  01EE  1283               	bsf	(249/8),(249)&7	;volatile
  1857  01EF  149F               	line	30
  1858                           ;Tunel-New.c: 30: void gabaritOff() {
  1859                           	goto	l49
  1860  01F0  29F1               	
  1861                           l50:	
  1862  01F1                     	
  1863                           l49:	
  1864  01F1                     	btfsc	(249/8),(249)&7	;volatile
  1865  01F1  189F               	goto	u411
  1866  01F2  29F4               	goto	u410
  1867  01F3  29F5               u411:
  1868  01F4                     	goto	l49
  1869  01F4  29F1               u410:
  1870  01F5                     	goto	l858
  1871  01F5  29F6               	
  1872                           l51:	
  1873  01F6                     	line	31
  1874                           	
  1875                           l858:	
  1876  01F6                     ;Tunel-New.c: 31:     for (i = 0; i <= 235; i++) {
  1877                           	movf	(30),w	;volatile
  1878  01F6  081E               	movwf	(??_ADC+0)+0
  1879  01F7  00AA               	clrf	(??_ADC+0)+0+1
  1880  01F8  01AB               	movf	0+(??_ADC+0)+0,w
  1881  01F9  082A               	movwf	(_volt)
  1882  01FA  00AD               	movf	1+(??_ADC+0)+0,w
  1883  01FB  082B               	movwf	(_volt+1)
  1884  01FC  00AE               	line	32
  1885                           	
  1886                           l860:	
  1887  01FD                     ;Tunel-New.c: 32:         ADC();
  1888                           	bcf	(248/8),(248)&7	;volatile
  1889  01FD  101F               	line	33
  1890                           	
  1891                           l52:	
  1892  01FE                     	return
  1893  01FE  0008               	opt stack 0
  1894                           GLOBAL	__end_of_ADC
  1895                           	__end_of_ADC:
  1896  01FF                     	signat	_ADC,89
  1897                           	global	_isr
  1898                           
  1899 ;; *************** function _isr *****************
  1900 ;; Defined at:
  1901 ;;		line 100 in file "Tunel-New.c"
  1902 ;; Parameters:    Size  Location     Type
  1903 ;;		None
  1904 ;; Auto vars:     Size  Location     Type
  1905 ;;		None
  1906 ;; Return value:  Size  Location     Type
  1907 ;;                  1    wreg      void 
  1908 ;; Registers used:
  1909 ;;		None
  1910 ;; Tracked objects:
  1911 ;;		On entry : 0/0
  1912 ;;		On exit  : 0/0
  1913 ;;		Unchanged: 0/0
  1914 ;; Data sizes:     COMMON   BANK0
  1915 ;;      Params:         0       0
  1916 ;;      Locals:         0       0
  1917 ;;      Temps:          0       2
  1918 ;;      Totals:         0       2
  1919 ;;Total ram usage:        2 bytes
  1920 ;; Hardware stack levels used:    1
  1921 ;; This function calls:
  1922 ;;		Nothing
  1923 ;; This function is called by:
  1924 ;;		Interrupt level 1
  1925 ;; This function uses a non-reentrant model
  1926 ;;
  1927                           psect	text7,local,class=CODE,delta=2,merge=1,group=0
  1928                           	line	100
  1929                           global __ptext7
  1930                           __ptext7:	;psect for function _isr
  1931  01FF                     psect	text7
  1932                           	file	"Tunel-New.c"
  1933                           	line	100
  1934                           	global	__size_of_isr
  1935                           	__size_of_isr	equ	__end_of_isr-_isr
  1936  0021                     	
  1937                           _isr:	
  1938  01FF                     ;incstack = 0
  1939                           	opt	stack 5
  1940                           ; Regs used in _isr: []
  1941                           psect	intentry,class=CODE,delta=2
  1942                           global __pintentry
  1943                           __pintentry:
  1944  0004                     global interrupt_function
  1945                           interrupt_function:
  1946  0004                     	global saved_w
  1947                           	saved_w	set	btemp+0
  1948  005E                     	movwf	saved_w
  1949  0004  00DE               	swapf	status,w
  1950  0005  0E03               	bcf	status, 5	;RP0=0, select bank0
  1951  0006  1283               	movwf	(??_isr+0)
  1952  0007  00A8               	movf	pclath,w
  1953  0008  080A               	movwf	(??_isr+1)
  1954  0009  00A9               	ljmp	_isr
  1955  000A  29FF               psect	text7
  1956                           	line	101
  1957                           	
  1958                           i1l946:	
  1959  01FF                     ;Tunel-New.c: 101:     GPIO = 0b00000000;
  1960                           	btfss	(89/8),(89)&7	;volatile
  1961  01FF  1C8B               	goto	u65_21
  1962  0200  2A02               	goto	u65_20
  1963  0201  2A03               u65_21:
  1964  0202                     	goto	i1l107
  1965  0202  2A19               u65_20:
  1966  0203                     	line	102
  1967                           	
  1968                           i1l948:	
  1969  0203                     ;Tunel-New.c: 102:     CMCON = 0x07;
  1970                           	bcf	(89/8),(89)&7	;volatile
  1971  0203  108B               	line	103
  1972                           ;Tunel-New.c: 103:     INTCON = 0b10010000;
  1973                           	bcf	(40/8),(40)&7	;volatile
  1974  0204  1005               	line	104
  1975                           ;Tunel-New.c: 104:     OPTION_REGbits.INTEDG = 0;
  1976                           	goto	i1l101
  1977  0205  2A0E               	
  1978                           i1l102:	
  1979  0206                     	line	105
  1980                           ;Tunel-New.c: 105:     ADCON0 = 0b00001100;
  1981                           	btfsc	(42/8),(42)&7	;volatile
  1982  0206  1905               	goto	u66_21
  1983  0207  2A09               	goto	u66_20
  1984  0208  2A0A               u66_21:
  1985  0209                     	goto	i1l103
  1986  0209  2A0C               u66_20:
  1987  020A                     	line	106
  1988                           	
  1989                           i1l950:	
  1990  020A                     ;Tunel-New.c: 106:     ANSEL = 0b00011000;
  1991                           	bsf	(41/8),(41)&7	;volatile
  1992  020A  1485               	line	107
  1993                           ;Tunel-New.c: 107:     while (1) {
  1994                           	goto	i1l101
  1995  020B  2A0E               	
  1996                           i1l103:	
  1997  020C                     	line	108
  1998                           ;Tunel-New.c: 108:         while (GP3 == 1) {
  1999                           	bcf	(41/8),(41)&7	;volatile
  2000  020C  1085               	goto	i1l101
  2001  020D  2A0E               	line	109
  2002                           ;Tunel-New.c: 109:             ADC();
  2003                           	
  2004                           i1l104:	
  2005  020E                     	line	110
  2006                           ;Tunel-New.c: 110:             if (volt > gabOn && GP1 == 0) {
  2007                           	
  2008                           i1l101:	
  2009  020E                     	line	104
  2010                           ;Tunel-New.c: 104:     OPTION_REGbits.INTEDG = 0;
  2011                           	btfsc	(43/8),(43)&7	;volatile
  2012  020E  1985               	goto	u67_21
  2013  020F  2A11               	goto	u67_20
  2014  0210  2A12               u67_21:
  2015  0211                     	goto	i1l102
  2016  0211  2A06               u67_20:
  2017  0212                     	
  2018                           i1l105:	
  2019  0212                     	line	111
  2020                           ;Tunel-New.c: 111:                 gabaritOn();
  2021                           	btfsc	(42/8),(42)&7	;volatile
  2022  0212  1905               	goto	u68_21
  2023  0213  2A15               	goto	u68_20
  2024  0214  2A16               u68_21:
  2025  0215                     	goto	i1l107
  2026  0215  2A19               u68_20:
  2027  0216                     	line	112
  2028                           	
  2029                           i1l952:	
  2030  0216                     ;Tunel-New.c: 112:             }
  2031                           	bsf	(41/8),(41)&7	;volatile
  2032  0216  1485               	goto	i1l107
  2033  0217  2A19               	line	113
  2034                           ;Tunel-New.c: 113:             if (volt > blijOn && GP0 == 0) {
  2035                           	
  2036                           i1l106:	
  2037  0218                     	goto	i1l107
  2038  0218  2A19               	line	114
  2039                           ;Tunel-New.c: 114:                 blijniyOn();
  2040                           	
  2041                           i1l100:	
  2042  0219                     	line	115
  2043                           	
  2044                           i1l107:	
  2045  0219                     	movf	(??_isr+1),w
  2046  0219  0829               	movwf	pclath
  2047  021A  008A               	swapf	(??_isr+0)^00h,w
  2048  021B  0E28               	movwf	status
  2049  021C  0083               	swapf	saved_w,f
  2050  021D  0EDE               	swapf	saved_w,w
  2051  021E  0E5E               	retfie
  2052  021F  0009               	opt stack 0
  2053                           GLOBAL	__end_of_isr
  2054                           	__end_of_isr:
  2055  0220                     	signat	_isr,89
  2056                           global	___latbits
  2057                           ___latbits	equ	0
  2058  0000                     	global	btemp
  2059                           	btemp set 05Eh
  2060  005E                     
  2061                           	DABS	1,94,2	;btemp
  2062                           	global	wtemp0
  2063                           	wtemp0 set btemp+0
  2064  005E                     	end


Data Sizes:
    Strings     0
    Constant    0
    Data        8
    BSS         4
    Persistent  0
    Stack       0

Auto Spaces:
    Space          Size  Autos    Used
    COMMON            0      0       0
    BANK0            62      5      17

Pointer List with Targets:

    None.

Critical Paths under _main in COMMON

    None.

Critical Paths under _isr in COMMON

    None.

Critical Paths under _main in BANK0

    _main->_blijniyOn
    _main->_gabaritOff
    _main->_gabaritOn
    _gabaritOn->_ADC
    _gabaritOff->_ADC
    _blijniyOn->_ADC
    _blijniyOff->_ADC

Critical Paths under _isr in BANK0

    None.

Call Graph Tables:

 ---------------------------------------------------------------------------------
 (Depth) Function   	        Calls       Base Space   Used Autos Params    Refs
 ---------------------------------------------------------------------------------
 (0) _main                                                 0     0      0       0
                                _ADC
                         _blijniyOff
                          _blijniyOn
                         _gabaritOff
                          _gabaritOn
                         _sentrZamok
 ---------------------------------------------------------------------------------
 (1) _sentrZamok                                           1     1      0       0
                                              2 BANK0      1     1      0
 ---------------------------------------------------------------------------------
 (1) _gabaritOn                                            1     1      0       0
                                              4 BANK0      1     1      0
                                _ADC
 ---------------------------------------------------------------------------------
 (1) _gabaritOff                                           1     1      0       0
                                              4 BANK0      1     1      0
                                _ADC
 ---------------------------------------------------------------------------------
 (1) _blijniyOn                                            1     1      0       0
                                              4 BANK0      1     1      0
                                _ADC
 ---------------------------------------------------------------------------------
 (1) _blijniyOff                                           0     0      0       0
                                _ADC
 ---------------------------------------------------------------------------------
 (2) _ADC                                                  2     2      0       0
                                              2 BANK0      2     2      0
 ---------------------------------------------------------------------------------
 Estimated maximum stack depth 2
 ---------------------------------------------------------------------------------
 (Depth) Function   	        Calls       Base Space   Used Autos Params    Refs
 ---------------------------------------------------------------------------------
 (3) _isr                                                  2     2      0       0
                                              0 BANK0      2     2      0
 ---------------------------------------------------------------------------------
 Estimated maximum stack depth 3
 ---------------------------------------------------------------------------------

 Call Graph Graphs:

 _main (ROOT)
   _ADC
   _blijniyOff
     _ADC
   _blijniyOn
     _ADC
   _gabaritOff
     _ADC
   _gabaritOn
     _ADC
   _sentrZamok

 _isr (ROOT)

 Address spaces:
Name               Size   Autos  Total    Cost      Usage
SFR1                 0      0       0       2        0.0%
BITSFR1              0      0       0       2        0.0%
BANK0               3E      5      11       4       27.4%
BITBANK0            3E      0       0       3        0.0%
SFR0                 0      0       0       1        0.0%
BITSFR0              0      0       0       1        0.0%
COMMON               0      0       0       1        0.0%
BITCOMMON            0      0       0       0        0.0%
CODE                 0      0       0       0        0.0%
DATA                 0      0      11       6        0.0%
ABS                  0      0      11       5        0.0%
NULL                 0      0       0       0        0.0%
STACK                0      0       0       2        0.0%
EEDATA              80      0       0       0        0.0%


Microchip Technology PIC Macro Assembler V2.00 build -1524193055 
Symbol Table                                                                                   Fri Nov 12 01:10:39 2021

             __CFG_CP$ON 0000                        _i 002F                       l50 01F1  
                     l51 01F6                       l52 01FE                       l60 00E1  
                     l61 00E1                       l70 0125                       l55 00AC  
                     l64 00F0                       l56 00D5                       l49 01F1  
                     l73 0134                       l65 0119                       l57 00BD  
                     l82 0178                       l74 015D                       l66 0101  
                     l83 0199                       l75 0145                       l59 00BC  
                     l91 01B6                       l84 0189                       l68 0100  
                     l92 01D6                       l77 0144                       l69 0125  
                     l93 01BF                       l86 0188                       l78 0169  
                     l94 01C6                       l87 01A5                       l79 0169  
                     l95 01D8                       l88 01A5              __CFG_CPD$ON 0000  
                    l120 0093                      l112 0034                      l121 0092  
                    l113 007B                      l122 009B                      l114 0035  
                    l123 009C                      l115 0047                      l124 009D  
                    l116 0058                      l125 009D                      l117 0069  
                    l118 007A                      l119 0080                      _ADC 01D9  
                    l900 0129                      l910 0145                      l902 0133  
                    l920 0177                      l912 015D                      l904 0134  
                    l930 0199                      l922 0178                      l914 0167  
                    l906 0135                      l860 01FD                      l852 01D9  
                    l932 01A3                      l924 0179                      l916 016A  
                    l908 013A                      l940 01B5                      l854 01E3  
                    l926 017E                      l918 016D                      l870 00AD  
                    l862 009E                      l942 01BA                      l934 01A6  
                    l856 01EE                      l928 0189                      l880 00E2  
                    l872 00B2                      l864 00A1                      l944 01BF  
                    l936 01A9                      l960 0029                      l858 01F6  
                    l890 00F6                      l882 00E5                      l874 00BD  
                    l866 00AB                      l938 01AB                      l970 0036  
                    l962 002B                      l954 0022                      l892 0101  
                    l884 00EF                      l876 00D5                      l868 00AC  
                    l980 0056                      l972 0041                      l964 002D  
                    l956 0025                      _GP0 0028                      _GP1 0029  
                    l894 0119                      l886 00F0                      l878 00DF  
                    l990 0074                      l982 0058                      l974 0045  
                    l966 0030                      l958 0027                      _GP2 002A  
                    _GP3 002B                      l896 0123                      l888 00F1  
                    l992 0078                      l984 0063                      l976 0047  
                    l968 0035                      _GP5 002D                      l898 0126  
                    l986 0067                      l978 0052                      l994 007B  
                    l996 0084                      l988 0069                      l998 0085  
                    u410 01F5                      u411 01F4                      u500 0118  
                    u420 00AA                      u501 0117                      u421 00A9  
                    u510 0123                      u430 00B2                      u511 0122  
                    u431 00B1                      u600 0198                      u520 0132  
                    u440 00BB                      u601 0197                      u521 0131  
                    u441 00BA                      u610 01A3                      u530 013A  
                    u450 00D4                      u611 01A2                      u531 0139  
                    u515 011F                      u451 00D3                      u540 0143  
                    u460 00DF                      u620 01B4                      u700 0045  
                    u541 0142                      u461 00DE                      u621 01B3  
                    u701 0044                      u550 015C                      u470 00EE  
                    u630 01BA                      u710 0052                      u615 019F  
                    u551 015B                      u471 00ED                      u631 01B9  
                    u711 0051                      u560 0167                      u480 00F6  
                    u640 01D6                      u800 0098                      u720 0056  
                    u561 0166                      u481 00F5                      u465 00DB  
                    u641 01D5                      u801 0097                      u721 0055  
                    u570 0176                      u490 00FF                      u730 0063  
                    u571 0175                      u491 00FE                      u731 0062  
                    u715 004E                      u580 017E                      u740 0067  
                    u581 017D                      u565 0163                      u741 0066  
                    u590 0187                      u750 0074                      u591 0186  
                    u751 0073                      u735 005F                      u760 0078  
                    u817 01C1                      u761 0077                      u770 0080  
                    u690 0041                      u827 00BF                      u771 007F  
                    u755 0070                      u691 0040                      u780 0084  
                    u837 0103                      u781 0083                      u790 0090  
                    u847 0147                      u791 008F                      u695 003D  
                    u857 01DE                      u867 01E9                      u795 008C  
                    _isr 01FF                     ?_ADC 0028                     l1000 0090  
                   l1002 0093                     l1004 0098                     ?_isr 0028  
                   _ADON 00F8                     _GPIO 0005                     _INTF 0059  
                   _main 0022                     btemp 005E                     _volt 002D  
                   start 000B                    ??_ADC 002A                    ??_isr 0028  
                  ?_main 0028            __CFG_WDTE$OFF 0000                    _CMCON 0019  
                  _ANSEL 009F                    i1l100 0219                    i1l101 020E  
                  i1l102 0206                    i1l103 020C                    i1l104 020E  
                  i1l105 0212                    i1l106 0218                    i1l107 0219  
                  i1l950 020A                    i1l952 0216                    i1l946 01FF  
                  i1l948 0203                    u65_20 0203                    u65_21 0202  
                  u66_20 020A                    u66_21 0209                    u67_20 0212  
                  u67_21 0211                    u68_20 0216                    u68_21 0215  
                  _gabOn 0026           __CFG_BOREN$OFF 0000                    pclath 000A  
                  status 0003                    wtemp0 005E           __CFG_MCLRE$OFF 0000  
        __initialization 000C             __end_of_main 009E                   ??_main 0000  
                 _ADCON0 001F                   _ADRESH 001E                   _INTCON 000B  
                 _TRISIO 0085           __CFG_PWRTE$OFF 0000                   _gabOff 0024  
                 _blijOn 0022                   saved_w 005E  __end_of__initialization 0020  
         __pcstackCOMMON 0000             __pidataBANK0 0220       __size_of_gabaritOn 0044  
     __size_of_blijniyOn 0044           _OPTION_REGbits 0081               __pbssBANK0 002D  
             _gabaritOff 00E2               __pmaintext 0022               __pintentry 0004  
             _blijniyOff 016A                  _GO_DONE 00F9        __end_of_gabaritOn 00E2  
      __end_of_blijniyOn 016A                  _blijOff 0020                  __ptext1 01A6  
                __ptext2 009E                  __ptext3 00E2                  __ptext4 0126  
                __ptext5 016A                  __ptext6 01D9                  __ptext7 01FF  
           __size_of_ADC 0026             __size_of_isr 0021     end_of_initialization 0020  
            ?_gabaritOff 0028               _sentrZamok 01A6              ?_blijniyOff 0028  
    __size_of_gabaritOff 0044      start_initialization 000C              __end_of_ADC 01FF  
            __end_of_isr 0220      __size_of_blijniyOff 003C              ?_sentrZamok 0028  
            __pdataBANK0 0020                ___latbits 0000            __pcstackBANK0 0028  
              _gabaritOn 009E                _blijniyOn 0126      __size_of_sentrZamok 0033  
           ??_gabaritOff 002C        interrupt_function 0004               ?_gabaritOn 0028  
             ?_blijniyOn 0028             ??_blijniyOff 0000       __end_of_gabaritOff 0126  
     __end_of_blijniyOff 01A6            __size_of_main 007C              ??_gabaritOn 002C  
            ??_blijniyOn 002C             ??_sentrZamok 002A                 intlevel1 0000  
     __end_of_sentrZamok 01D9        __CFG_FOSC$INTRCIO 0000  
