MPASM 5.77                           KEN.ASM   5-19-2019  5:34:27         PAGE  1


LOC  OBJECT CODE     LINE SOURCE TEXT
  VALUE

Warning[205]: Found directive in column 1. (list)
                      00001 list p=12f675
                      00002 
                      00003         #include <P12f675.INC>
                      00001         LIST
                      00002 
                      00003 ;==========================================================================
                      00004 ; Build date : Nov 22 2017
                      00005 ;  MPASM PIC12F675 processor include
                      00006 ; 
                      00007 ;  (c) Copyright 1999-2017 Microchip Technology, All rights reserved
                      00008 ;==========================================================================
                      00009 
                      00367         LIST
                      00004 
                      00005         ERRORLEVEL      -302            
                      00006 
                      00007 
2007   0014           00008         __CONFIG  00014H
                      00009         ;__CONFIG       _MCLRE_OFF & _PWRTE_OFF & _WDT_OFF & _INTRC_OSC_NOCLKOUT & _BODEN_OFF
                      00010         #define   IR_LED    GPIO,2 ; ???????????? ?????????
                      00011 
                      00012 
  00000026            00013 count           equ     0x26    
  00000027            00014 loops           equ     0x27    
  00000028            00015 loops2          equ     0x28    
                      00016 
                      00017 
  00000029            00018 f0              equ     0x29    
  0000002A            00019 f1              equ     0x2A     
                      00020 
  0000002B            00021 powermax        equ     0x2B    
  0000002C            00022 powermin        equ     0x2C    
  0000002D            00023 modemax         equ     0x2D
  0000002E            00024 modemin         equ     0x2E
  00000037            00025 seekmax         equ     0x37
  00000038            00026 seekmin         equ     0x38
  00000039            00027 volumtepamax    equ     0x39
  00000030            00028 volumtepamin    equ     0x30
  0000003A            00029 volumpasmax     equ     0x3A
  0000003B            00030 volumpasmin     equ     0x3B
  0000003C            00031 fCOUNTER        equ     0x3C ; ??????? ?????? ??? ?????????? ???????????.
  0000003D            00032 fCOUNTER2       equ     0x3D ; ???????2.
  0000003E            00033 Sec1            equ     0x3E    
  00000031            00034 Reg_1           equ     0x31            
  00000032            00035 Reg_2           equ     0x32
  00000033            00036 Reg_3           equ     0x33
  00000034            00037 Reg_4           equ     0x34
  00000035            00038 Reg_5           equ     0x35
  00000036            00039 Reg_6           equ     0x36            
                      00040                 
                      00041 
                      00042 
MPASM 5.77                           KEN.ASM   5-19-2019  5:34:27         PAGE  2


LOC  OBJECT CODE     LINE SOURCE TEXT
  VALUE

                      00043         org     0x00
                      00044 
0000   2???           00045         goto    Init
                      00046 
                      00047 ;***********************************************************************
                      00048 ; Initialisierung
                      00049 ;
0001                  00050 Init
                      00051         ; IO-Pins
0001   1283           00052             bcf     STATUS, RP0         ; Bank 0
0002   0185           00053             clrf    GPIO                        ; aus!
0003   3007           00054             movlw   b'00000111'
0004   0099           00055             movwf   CMCON                       ; Comparator aus
0005   1683           00056             bsf     STATUS, RP0         ; Bank 1
                      00057            
0006   1485           00058             bsf     TRISIO,1
0007   1105           00059             bcf     TRISIO,2
0008   1585           00060             bsf     TRISIO,3
0009   1285           00061             bcf     TRISIO,5            ; GP5 output f?r Schalttransistor oder LED
000A   1605           00062             bsf     TRISIO,4
000B   1781           00063             bsf     OPTION_REG,7          ; podtyaguyushiy rezistor o`chirildi
000C   1095           00064             bcf     WPU, WPU1           ;podtyaguyeshshiy rezistor gpio1 ga o`rnatilmadi
000D   1115           00065             bcf     WPU, WPU2
000E   1015           00066             bcf     WPU, WPU0
000F   1283           00067             bcf     STATUS, RP0         ; Bank0 ; internen Taktgenerator kalibrieren
0010   1683           00068             bsf     STATUS, RP0         ; Bank 1
0011   23FF           00069             call    0x3FF
0012   0090           00070             movwf   OSCCAL                      ; 4-MHz-Kalibrierung
0013   1283           00071             bcf     STATUS, RP0         ; Bank 0
                      00072 
                      00073         ; Interrupt
0014   138B           00074             bcf     INTCON, GIE         ; Int deaktiviert
                      00075 ;******************************************************************************
                      00076 ; ADC initialisieren
                      00077         ; ADC einschalten
0015   141F           00078             BSF     ADCON0, ADON        ; ADON=1
                      00079         ; ADC-Eingang AN0 ausw?hlen
0016   159F           00080             BSF     ADCON0, CHS1        ; ADCHS1=0
0017   151F           00081             BSF     ADCON0, CHS0        ; ADCHS0=0
                      00082         ; ADC speed f?r 1,25 ... 5 MHz einstellen
0018   1683           00083             BSF     STATUS,RP0  ; Bank1
0019   019F           00084             clrf    ANSEL
001A   161F           00085             BSF     ANSEL, ADCS0        ; ADCS0=1 Fosc/8
                      00086         ; AN0,1 analog
                      00087             ;BSF            ANSEL, ANS0 ; AN1=analog
001B   159F           00088             BSF     ANSEL, ANS3
001C   1283           00089             BCF     STATUS,RP0  ; Bank0
                      00090         ; Daten linksb?ndig
001D   131F           00091             BCF     ADCON0, VCFG        ; RA2=digital
001E   139F           00092             BCF     ADCON0, ADFM        ; ADFM=1 linksb?ndig
                      00093 
                      00094         ;LED-Schaltspannungen festlegen
                      00095                 
MPASM 5.77                           KEN.ASM   5-19-2019  5:34:27         PAGE  3


LOC  OBJECT CODE     LINE SOURCE TEXT
  VALUE

001F   30FD           00096            movlw   0xFD         ;4.84V
0020   00AB           00097             movwf   powermax
                      00098         
0021   30F4           00099             movlw   0xF4                ;4.69V
0022   00AC           00100             movwf   powermin
                      00101 
                      00102             
0023   30F4           00103             movlw   0xF4                ; 4.64V
0024   00AD           00104             movwf   modemax
                      00105 
0025   30EC           00106             movlw   0xEC                ; 4.56V
0026   00AE           00107             movwf   modemin
                      00108             
                      00109             
0027   30EC           00110             movlw   0xEC                ; 4.46V
0028   00B7           00111             movwf   seekmax
                      00112             
0029   30CF           00113             movlw   0xCF                ; 4.38V
002A   00B8           00114             movwf   seekmin
                      00115             
                      00116             
002B   30CF           00117             movlw   0xCF                ; 3.77V
002C   00B9           00118             movwf   volumtepamax
                      00119             
002D   3055           00120             movlw   0x55                ; 3.69V
002E   00B0           00121             movwf   volumtepamin
                      00122             
                      00123             
002F   3055           00124             movlw   0x55                ; 0.01V
0030   00BA           00125             movwf   volumpasmax
                      00126             
0031   3002           00127             movlw   0x02                ; 0.06V
0032   00BB           00128             movwf   volumpasmin
                      00129 ;***********************************************************************
                      00130 ;Main 
0033                  00131 Mainloop
                      00132         ; Messen
0033   2???           00133         call    UMessen1        ; AN0 nach f1,f0  (f1 is entscheidend)
0034   2???           00134         call    LED             ; LED ein-/ausschalten
0035   2???           00135         goto    Mainloop
                      00136 
                      00137 ;***********************************************************************
0036   149F           00138 UMessen1    BSF     ADCON0, 1   ; ADC starten       
0037   189F           00139 loop        BTFSC   ADCON0, 1   ; ist der ADC fertig?
0038   2???           00140             GOTO    loop                ; nein, weiter warten       
0039   081E           00141             movfw   ADRESH              ; obere  8 Bit auslesen
003A   00AA           00142             movwf   f1          ; obere  8-Bit nach f1
003B   1683           00143             bsf     STATUS,RP0  ; Bank1
003C   081E           00144             movfw   ADRESL              ; untere 2 Bit auslesen, werden aber  nicht ben?tigt
003D   1283           00145             bcf     STATUS,RP0  ; Bank0
003E   00A9           00146             movwf   f0          ; untere 2-Bit nach f0
003F   30A5           00147             movlw       .165
0040   00B1           00148             movwf       Reg_1
MPASM 5.77                           KEN.ASM   5-19-2019  5:34:27         PAGE  4


LOC  OBJECT CODE     LINE SOURCE TEXT
  VALUE

0041   3033           00149             movlw       .51
0042   00B2           00150             movwf       Reg_2
0043   0BB1           00151             decfsz      Reg_1,F
0044   2???           00152             goto        $-1
0045   0BB2           00153             decfsz      Reg_2,F
0046   2???           00154             goto        $-3
0047   0008           00155             return
                      00156 ;***********************************************************************
                      00157 ; LED ein/aus-schalten
0048                  00158 LED
                      00159         
0048   082B           00160         MOVFW   powermax
0049   022A           00161         subwf   f1, w           ; w:=f1-w 
004A   1C03           00162         btfss   STATUS, C
004B   2???           00163         call    power           ; LED an
                      00164         
                      00165         
004C   082D           00166         MOVFW   modemax
004D   022A           00167         subwf   f1, w           ; w:=f1-w 
004E   1C03           00168         btfss   STATUS, C
004F   2???           00169         call    mode            ; LED an
                      00170         
                      00171         
0050   0837           00172         MOVFW   seekmax
0051   022A           00173         subwf   f1, w           ; w:=f1-w 
0052   1C03           00174         btfss   STATUS, C
0053   2???           00175         call    seek            ; LED an
                      00176         
                      00177         
0054   0839           00178         MOVFW   volumtepamax
0055   022A           00179         subwf   f1, w           ; w:=f1-w 
0056   1C03           00180         btfss   STATUS, C
0057   2???           00181         call    volumtepa       ; LED an
                      00182         
                      00183         
0058   083A           00184         MOVFW   volumpasmax
0059   022A           00185         subwf   f1, w           ; w:=f1-w 
005A   1C03           00186         btfss   STATUS, C
005B   2???           00187         call    volumpas        ; LED an
                      00188         
005C   0008           00189         return
                      00190 ;***********************************************************************
                      00191 ; pr?fen ob f1<Uoff
005D   082C           00192 power   MOVFW   powermin
005E   022A           00193         subwf   f1, w           ; w:=f1-w 
005F   1803           00194         btfsc   STATUS, C
0060   2???           00195         call    cmpower
0061   301E           00196         movlw   d'30'
0062   2???           00197         call    Big_delay
0063   0008           00198         return
                      00199         
0064   082E           00200 mode    MOVFW   modemin
0065   022A           00201         subwf   f1, w           ; w:=f1-w 
MPASM 5.77                           KEN.ASM   5-19-2019  5:34:27         PAGE  5


LOC  OBJECT CODE     LINE SOURCE TEXT
  VALUE

0066   1803           00202         btfsc   STATUS, C
0067   2???           00203         call    cmmode
0068   301E           00204         movlw   d'30'
0069   2???           00205         call    Big_delay
006A   0008           00206         return
                      00207         
006B   0838           00208 seek    MOVFW   seekmin
006C   022A           00209         subwf   f1, w           ; w:=f1-w 
006D   1803           00210         btfsc   STATUS, C
006E   2???           00211         call    cmseek
006F   301E           00212         movlw   d'30'
0070   2???           00213         call    Big_delay
0071   0008           00214         return
                      00215         
0072   0830           00216 volumtepa MOVFW volumtepamin
0073   022A           00217         subwf   f1, w           ; w:=f1-w 
0074   1803           00218         btfsc   STATUS, C
0075   2???           00219         call    cmvolumtepa
0076   301E           00220         movlw   d'30'
0077   2???           00221         call    Big_delay
0078   0008           00222         return  
                      00223         
0079   083B           00224 volumpas MOVFW  volumpasmin
007A   022A           00225         subwf   f1, w           ; w:=f1-w 
007B   1803           00226         btfsc   STATUS, C
007C   2???           00227         call    cmvolumpas
007D   301E           00228         movlw   d'30'
007E   2???           00229         call    Big_delay
007F   0008           00230         return  
                      00231         
                      00232 ;***********************************************************************
                      00233 
                      00234 ;-----------------------------------------------------------------------------
                      00235 
                      00236 
0080                  00237 Main_Loop:
                      00238         ;call    Transmit_CMD1
0080   301E           00239         movlw   d'30'
0081   2???           00240         call    Big_delay
                      00241         ;call    Transmit_CMD1
0082   301E           00242         movlw   d'30'
0083   2???           00243         call    Big_delay
                      00244         ;call    Transmit_CMD2
0084   3096           00245         movlw   d'150'
0085   2???           00246         call    Big_delay
                      00247         ;call    Transmit_CMD2
0086   3096           00248         movlw   d'150'
0087   2???           00249         call    Big_delay
                      00250         ;call    Transmit_CMD2
0088   3096           00251         movlw   d'150'
0089   2???           00252         call    Big_delay
                      00253         ;call    Transmit_CMD2
008A   3096           00254         movlw   d'150'
MPASM 5.77                           KEN.ASM   5-19-2019  5:34:27         PAGE  6


LOC  OBJECT CODE     LINE SOURCE TEXT
  VALUE

008B   2???           00255         call    Big_delay
                      00256         ;call    Transmit_CMD2
008C   3096           00257         movlw   d'150'
008D   2???           00258         call    Big_delay
                      00259         ;call    Transmit_CMD2
008E   3096           00260         movlw   d'150'
008F   2???           00261         call    Big_delay
                      00262         ;call    Transmit_CMD2
0090   3096           00263         movlw   d'150'
0091   2???           00264         call    Big_delay
Warning[207]: Found label after column 1. (c)
0092                  00265         c;all    Transmit_CMD2
0092   3096           00266         movlw   d'150'
0093   2???           00267         call    Big_delay
                      00268         ;call    Transmit_CMD2
0094   3096           00269         movlw   d'150'
0095   2???           00270         call    Big_delay
                      00271         ;call    Transmit_CMD2
0096   3000           00272         movlw   0
0097   2???           00273         call    Big_delay
0098   2???           00274         call    Big_delay
0099   2???           00275         call    Big_delay
009A   2???           00276         call    Big_delay
009B   2???           00277         call    Big_delay
009C   2???           00278         call    Big_delay
009D   2???           00279         goto    Main_Loop
                      00280 
                      00281 
                      00282 ;<<<<<<<<<<<<<<<<<<<<<<<<<<<<<<<<<<<<<<<<<<<<<<<<<<<<<<<<<<<<<<<<<<<<<<<<<<<<<
                      00283 ;                  ? ? ? ? ? ? ? ? ?   ? ? ? ? ? ? ?
                      00284 ;>>>>>>>>>>>>>>>>>>>>>>>>>>>>>>>>>>>>>>>>>>>>>>>>>>>>>>>>>>>>>>>>>>>>>>>>>>>>>
                      00285 ;-----------------------------------------------------------------------------
009E                  00286 Big_delay ;=770*x+1     x=(delay-5)/770 ???????? ?????????? call ? return.
009E   00BD           00287         movwf   fCOUNTER2
009F   01BC           00288         clrf    fCOUNTER
00A0                  00289 BD_Loop94
00A0   0BBC           00290         decfsz  fCOUNTER,1
00A1   2???           00291         goto    BD_Loop94
00A2   0BBD           00292         decfsz  fCOUNTER2,1
00A3   2???           00293         goto    BD_Loop94
00A4   0008           00294         return
                      00295 ;-----------------------------------------------------------------------------
00A5                  00296 delay
00A5   00BC           00297         movwf   fCOUNTER
00A6                  00298 D_Loop36
00A6   0BBC           00299         decfsz  fCOUNTER,1
00A7   2???           00300         goto    D_Loop36
00A8   0008           00301         return
                      00302 ;-----------------------------------------------------------------------------
00A9                  00303 cmpower
                      00304         
00A9   2???           00305         call    delayy9ms
00AA   2???           00306         call    delayy4.5ms
MPASM 5.77                           KEN.ASM   5-19-2019  5:34:27         PAGE  7


LOC  OBJECT CODE     LINE SOURCE TEXT
  VALUE

00AB   2???           00307         call    Send_1;      // 0
00AC   2???           00308         call    Send_0;      // 1
00AD   2???           00309         call    Send_0;      // 2
00AE   2???           00310         call    Send_0;      // 3
00AF   2???           00311         call    Send_1;      // 4
00B0   2???           00312         call    Send_0;      // 5
00B1   2???           00313         call    Send_1;      // 6
00B2   2???           00314         call    Send_0;      // 7
00B3   2???           00315         call    Send_1;      // 8
00B4   2???           00316         call    Send_0;      // 9
00B5   2???           00317         call    Send_0;      // 10
00B6   2???           00318         call    Send_0;      // 11
00B7   2???           00319         call    Send_1;      // 12
00B8   2???           00320         call    Send_0;      // 13
00B9   2???           00321         call    Send_0;      // 14
00BA   2???           00322         call    Send_0;      // 15
00BB   2???           00323         call    Send_1;      // 16
00BC   2???           00324         call    Send_0;      // 17
00BD   2???           00325         call    Send_0;      // 19
00BE   2???           00326         call    Send_0;      // 20
00BF   2???           00327         call    Send_1;      // 21
00C0   2???           00328         call    Send_0;      // 22
00C1   2???           00329         call    Send_1;      // 23
00C2   2???           00330         call    Send_0;      // 24
00C3   2???           00331         call    Send_0;      // 25
00C4   2???           00332         call    Send_0;      // 26
00C5   2???           00333         call    Send_1;      // 27
00C6   2???           00334         call    Send_0;      // 28
00C7   2???           00335         call    Send_1;      // 29
00C8   2???           00336         call    Send_0;      // 30
00C9   2???           00337         call    Send_0;      // 31
00CA   2???           00338         call    Send_0;      // 32
00CB   2???           00339         call    Send_1;      // 33
00CC   2???           00340         call    Send_0;      // 34
00CD   2???           00341         call    Send_0;      // 35
00CE   2???           00342         call    Send_0;      // 36
00CF   2???           00343         call    Send_1;      // 37
00D0   2???           00344         call    Send_0;      // 38
00D1   2???           00345         call    Send_1;      // 39
00D2   2???           00346         call    Send_0;      // 40
00D3   2???           00347         call    Send_1;      // 41
00D4   2???           00348         call    Send_0;      // 42
00D5   2???           00349         call    Send_1;      // 43
00D6   2???           00350         call    Send_0;      // 35
00D7   2???           00351         call    Send_0;      // 36
00D8   2???           00352         call    Send_0;      // 37
00D9   2???           00353         call    Send_1;      // 38
00DA   2???           00354         call    Send_0;      // 39
00DB   2???           00355         call    Send_1;      // 40
00DC   2???           00356         call    Send_0;      // 41
00DD   2???           00357         call    Send_0;      // 42
00DE   2???           00358         call    Send_0;      // 43
00DF   2???           00359         call    Send_1;      // 35
MPASM 5.77                           KEN.ASM   5-19-2019  5:34:27         PAGE  8


LOC  OBJECT CODE     LINE SOURCE TEXT
  VALUE

00E0   2???           00360         call    Send_0;      // 36
00E1   2???           00361         call    Send_0;      // 37
00E2   2???           00362         call    Send_0;      // 38
00E3   2???           00363         call    Send_1;      // 39
00E4   2???           00364         call    Send_0;      // 40
00E5   2???           00365         call    Send_1;      // 41
00E6   2???           00366         call    Send_0;      // 42
00E7   2???           00367         call    Send_1;      // 43
00E8   2???           00368         call    Send_0;      // 43
00E9   2???           00369         call    Send_0;      // 43
00EA   2???           00370         call    Send_0;      // 43
00EB   2???           00371         call    Send_1;      // 43
00EC   2???           00372         call    Send_0;      // 43
00ED   2???           00373         call    Send_1;      // 43
00EE   2???           00374         call    Send_0;      // 43
00EF   2???           00375         call    Send_1;      // 43
00F0   2???           00376         call    Send_0;      // 43
00F1   2???           00377         call    Send_1;      // 43
00F2   2???           00378         call    Send_0;      // 43
00F3   2???           00379         call    Send_1;      // 43
00F4   2???           00380         call    Send_0;      // 43
00F5   2???           00381         call    Send_1;      // 43
00F6   2???           00382         call    Send_0;      // 43
00F7   2???           00383         call    Send_0;      // 43
00F8   2???           00384         call    Send_0;      // 43
00F9   2???           00385         call    Send_1;      // 43
00FA   2???           00386         call    Send_0;      // 43
00FB   2???           00387         call    Send_0;      // 43
00FC   2???           00388         call    Send_0;      // 43
00FD   2???           00389         call    Send_1;      // 43
00FE   2???           00390         call    Send_0;      // 43
00FF   2???           00391         call    Send_1;      // 43
0100   2???           00392         call    Send_0;      // 43
0101   2???           00393         call    Send_0;      // 43
0102   2???           00394         call    Send_0;      // 43
0103   2???           00395         call    Send_1;      // 43
0104   2???           00396         call    Send_0;      // 43
0105   2???           00397         call    Send_0;      // 43
0106   2???           00398         call    Send_0;      // 43
0107   2???           00399         call    Send_1;      // 43
0108   2???           00400         call    Send_0;      // 43
0109   2???           00401         call    Send_0;      // 43
010A   2???           00402         call    Send_0;      // 43
010B   2???           00403         call    Send_1;      // 43
010C   2???           00404         call    Send_0;      // 43
                      00405         
010D   0008           00406         return
                      00407 ;-----------------------------------------------------------------------------
010E                  00408 cmmode
010E   2???           00409         call    delayy9ms
010F   2???           00410         call    delayy4.5ms
0110   2???           00411         call    Send_1;      // 0
0111   2???           00412         call    Send_0;      // 1
MPASM 5.77                           KEN.ASM   5-19-2019  5:34:27         PAGE  9


LOC  OBJECT CODE     LINE SOURCE TEXT
  VALUE

0112   2???           00413         call    Send_0;      // 2
0113   2???           00414         call    Send_0;      // 3
0114   2???           00415         call    Send_1;      // 4
0115   2???           00416         call    Send_0;      // 5
0116   2???           00417         call    Send_1;      // 6
0117   2???           00418         call    Send_0;      // 7
0118   2???           00419         call    Send_1;      // 8
0119   2???           00420         call    Send_0;      // 9
011A   2???           00421         call    Send_0;      // 10
011B   2???           00422         call    Send_0;      // 11
011C   2???           00423         call    Send_1;      // 12
011D   2???           00424         call    Send_0;      // 13
011E   2???           00425         call    Send_0;      // 14
011F   2???           00426         call    Send_0;      // 15
0120   2???           00427         call    Send_1;      // 16
0121   2???           00428         call    Send_0;      // 17
0122   2???           00429         call    Send_0;      // 19
0123   2???           00430         call    Send_0;      // 20
0124   2???           00431         call    Send_1;      // 21
0125   2???           00432         call    Send_0;      // 22
0126   2???           00433         call    Send_1;      // 23
0127   2???           00434         call    Send_0;      // 24
0128   2???           00435         call    Send_0;      // 25
0129   2???           00436         call    Send_0;      // 26
012A   2???           00437         call    Send_1;      // 27
012B   2???           00438         call    Send_0;      // 28
012C   2???           00439         call    Send_1;      // 29
012D   2???           00440         call    Send_0;      // 30
012E   2???           00441         call    Send_0;      // 31
012F   2???           00442         call    Send_0;      // 32
0130   2???           00443         call    Send_1;      // 33
0131   2???           00444         call    Send_0;      // 34
0132   2???           00445         call    Send_0;      // 35
0133   2???           00446         call    Send_0;      // 36
0134   2???           00447         call    Send_1;      // 37
0135   2???           00448         call    Send_0;      // 38
0136   2???           00449         call    Send_1;      // 39
0137   2???           00450         call    Send_0;      // 40
0138   2???           00451         call    Send_1;      // 41
0139   2???           00452         call    Send_0;      // 42
013A   2???           00453         call    Send_1;      // 43
013B   2???           00454         call    Send_0;      // 35
013C   2???           00455         call    Send_0;      // 36
013D   2???           00456         call    Send_0;      // 37
013E   2???           00457         call    Send_1;      // 38
013F   2???           00458         call    Send_0;      // 39
0140   2???           00459         call    Send_1;      // 40
0141   2???           00460         call    Send_0;      // 41
0142   2???           00461         call    Send_1;      // 42
0143   2???           00462         call    Send_0;      // 43
0144   2???           00463         call    Send_0;      // 44
0145   2???           00464         call    Send_0;      // 45
0146   2???           00465         call    Send_1;      // 46
MPASM 5.77                           KEN.ASM   5-19-2019  5:34:27         PAGE 10


LOC  OBJECT CODE     LINE SOURCE TEXT
  VALUE

0147   2???           00466         call    Send_0;      // 47
0148   2???           00467         call    Send_0;      // 48
0149   2???           00468         call    Send_0;      // 49
014A   2???           00469         call    Send_1;      // 50
014B   2???           00470         call    Send_0;      // 51
014C   2???           00471         call    Send_1;      // 52
014D   2???           00472         call    Send_0;      // 53
014E   2???           00473         call    Send_0;      // 54
014F   2???           00474         call    Send_0;      // 55
0150   2???           00475         call    Send_1;      // 56
0151   2???           00476         call    Send_0;      // 57
0152   2???           00477         call    Send_1;      // 58
0153   2???           00478         call    Send_0;      // 59
0154   2???           00479         call    Send_1;      // 60
0155   2???           00480         call    Send_0;      // 61
0156   2???           00481         call    Send_1;      // 62
0157   2???           00482         call    Send_0;      // 63
0158   2???           00483         call    Send_0;      // 64
0159   2???           00484         call    Send_0;      // 65
015A   2???           00485         call    Send_1;      // 66
015B   2???           00486         call    Send_0;      // 67
015C   2???           00487         call    Send_1;      // 68
015D   2???           00488         call    Send_0;      // 69
015E   2???           00489         call    Send_1;      // 70
015F   2???           00490         call    Send_0;      // 71
0160   2???           00491         call    Send_0;      // 72
0161   2???           00492         call    Send_0;      // 73
0162   2???           00493         call    Send_1;      // 74
0163   2???           00494         call    Send_0;      // 75
0164   2???           00495         call    Send_1;      // 76
0165   2???           00496         call    Send_0;      // 77
0166   2???           00497         call    Send_0;      // 78
0167   2???           00498         call    Send_0;      // 79
0168   2???           00499         call    Send_1;      // 80
0169   2???           00500         call    Send_0;      // 81
016A   2???           00501         call    Send_0;      // 82
016B   2???           00502         call    Send_0;      // 83
016C   2???           00503         call    Send_1;      // 84
016D   2???           00504         call    Send_0;      // 85
016E   2???           00505         call    Send_0;      // 86
016F   2???           00506         call    Send_0;      // 87
0170   2???           00507         call    Send_1;      // 88
0171   2???           00508         call    Send_0;      // 89
0172   0008           00509         return
                      00510         
                      00511 ;-----------------------------------------------------------------------------
0173                  00512 cmseek
0173   2???           00513         call    delayy9ms
0174   2???           00514         call    delayy4.5ms
0175   2???           00515         call    Send_1;      // 0
0176   2???           00516         call    Send_0;      // 1
0177   2???           00517         call    Send_0;      // 2
0178   2???           00518         call    Send_0;      // 3
MPASM 5.77                           KEN.ASM   5-19-2019  5:34:27         PAGE 11


LOC  OBJECT CODE     LINE SOURCE TEXT
  VALUE

0179   2???           00519         call    Send_1;      // 4
017A   2???           00520         call    Send_0;      // 5
017B   2???           00521         call    Send_1;      // 6
017C   2???           00522         call    Send_0;      // 7
017D   2???           00523         call    Send_1;      // 8
017E   2???           00524         call    Send_0;      // 9
017F   2???           00525         call    Send_0;      // 10
0180   2???           00526         call    Send_0;      // 11
0181   2???           00527         call    Send_1;      // 12
0182   2???           00528         call    Send_0;      // 13
0183   2???           00529         call    Send_0;      // 14
0184   2???           00530         call    Send_0;      // 15
0185   2???           00531         call    Send_1;      // 16
0186   2???           00532         call    Send_0;      // 17
0187   2???           00533         call    Send_0;      // 19
0188   2???           00534         call    Send_0;      // 20
0189   2???           00535         call    Send_1;      // 21
018A   2???           00536         call    Send_0;      // 22
018B   2???           00537         call    Send_1;      // 23
018C   2???           00538         call    Send_0;      // 24
018D   2???           00539         call    Send_0;      // 25
018E   2???           00540         call    Send_0;      // 26
018F   2???           00541         call    Send_1;      // 27
0190   2???           00542         call    Send_0;      // 28
0191   2???           00543         call    Send_1;      // 29
0192   2???           00544         call    Send_0;      // 30
0193   2???           00545         call    Send_0;      // 31
0194   2???           00546         call    Send_0;      // 32
0195   2???           00547         call    Send_1;      // 33
0196   2???           00548         call    Send_0;      // 34
0197   2???           00549         call    Send_0;      // 35
0198   2???           00550         call    Send_0;      // 36
0199   2???           00551         call    Send_1;      // 37
019A   2???           00552         call    Send_0;      // 38
019B   2???           00553         call    Send_1;      // 39
019C   2???           00554         call    Send_0;      // 40
019D   2???           00555         call    Send_1;      // 41
019E   2???           00556         call    Send_0;      // 42
019F   2???           00557         call    Send_1;      // 43
01A0   2???           00558         call    Send_0;      // 35
01A1   2???           00559         call    Send_0;      // 36
01A2   2???           00560         call    Send_0;      // 37
01A3   2???           00561         call    Send_1;      // 38
01A4   2???           00562         call    Send_0;      // 39
01A5   2???           00563         call    Send_1;      // 40
01A6   2???           00564         call    Send_0;      // 41
01A7   2???           00565         call    Send_0;      // 42
01A8   2???           00566         call    Send_0;      // 43
01A9   2???           00567         call    Send_1;      // 44
01AA   2???           00568         call    Send_0;      // 45
01AB   2???           00569         call    Send_0;      // 46
01AC   2???           00570         call    Send_0;      // 47
01AD   2???           00571         call    Send_1;      // 48
MPASM 5.77                           KEN.ASM   5-19-2019  5:34:27         PAGE 12


LOC  OBJECT CODE     LINE SOURCE TEXT
  VALUE

01AE   2???           00572         call    Send_0;      // 49
01AF   2???           00573         call    Send_1;      // 50
01B0   2???           00574         call    Send_0;      // 51
01B1   2???           00575         call    Send_0;      // 52
01B2   2???           00576         call    Send_0;      // 53
01B3   2???           00577         call    Send_1;      // 54
01B4   2???           00578         call    Send_0;      // 55
01B5   2???           00579         call    Send_1;      // 56
01B6   2???           00580         call    Send_0;      // 57
01B7   2???           00581         call    Send_1;      // 58
01B8   2???           00582         call    Send_0;      // 59
01B9   2???           00583         call    Send_1;      // 60
01BA   2???           00584         call    Send_0;      // 61
01BB   2???           00585         call    Send_1;      // 62
01BC   2???           00586         call    Send_0;      // 63
01BD   2???           00587         call    Send_1;      // 64
01BE   2???           00588         call    Send_0;      // 65
01BF   2???           00589         call    Send_1;      // 66
01C0   2???           00590         call    Send_0;      // 67
01C1   2???           00591         call    Send_0;      // 68
01C2   2???           00592         call    Send_0;      // 69
01C3   2???           00593         call    Send_1;      // 70
01C4   2???           00594         call    Send_0;      // 71
01C5   2???           00595         call    Send_1;      // 72
01C6   2???           00596         call    Send_0;      // 73
01C7   2???           00597         call    Send_0;      // 74
01C8   2???           00598         call    Send_0;      // 75
01C9   2???           00599         call    Send_1;      // 76
01CA   2???           00600         call    Send_0;      // 77
01CB   2???           00601         call    Send_0;      // 78
01CC   2???           00602         call    Send_0;      // 79
01CD   2???           00603         call    Send_1;      // 80
01CE   2???           00604         call    Send_0;      // 81
01CF   2???           00605         call    Send_0;      // 82
01D0   2???           00606         call    Send_0;      // 83
01D1   2???           00607         call    Send_1;      // 84
01D2   2???           00608         call    Send_0;      // 85
01D3   2???           00609         call    Send_0;      // 86
01D4   2???           00610         call    Send_0;      // 87
01D5   2???           00611         call    Send_1;      // 88
01D6   2???           00612         call    Send_0;      // 89
01D7   0008           00613         return
                      00614         
                      00615 ;-----------------------------------------------------------------------------
                      00616         
                      00617         
01D8                  00618 cmvolumtepa     
01D8   2???           00619         call    delayy9ms
01D9   2???           00620         call    delayy4.5ms
01DA   2???           00621         call    Send_1;      // 0
01DB   2???           00622         call    Send_0;      // 1
01DC   2???           00623         call    Send_0;      // 2
01DD   2???           00624         call    Send_0;      // 3
MPASM 5.77                           KEN.ASM   5-19-2019  5:34:27         PAGE 13


LOC  OBJECT CODE     LINE SOURCE TEXT
  VALUE

01DE   2???           00625         call    Send_1;      // 4
01DF   2???           00626         call    Send_0;      // 5
01E0   2???           00627         call    Send_1;      // 6
01E1   2???           00628         call    Send_0;      // 7
01E2   2???           00629         call    Send_1;      // 8
01E3   2???           00630         call    Send_0;      // 9
01E4   2???           00631         call    Send_0;      // 10
01E5   2???           00632         call    Send_0;      // 11
01E6   2???           00633         call    Send_1;      // 12
01E7   2???           00634         call    Send_0;      // 13
01E8   2???           00635         call    Send_0;      // 14
01E9   2???           00636         call    Send_0;      // 15
01EA   2???           00637         call    Send_1;      // 16
01EB   2???           00638         call    Send_0;      // 17
01EC   2???           00639         call    Send_0;      // 19
01ED   2???           00640         call    Send_0;      // 20
01EE   2???           00641         call    Send_1;      // 21
01EF   2???           00642         call    Send_0;      // 22
01F0   2???           00643         call    Send_1;      // 24
01F1   2???           00644         call    Send_0;      // 25
01F2   2???           00645         call    Send_0;      // 26
01F3   2???           00646         call    Send_0;      // 27
01F4   2???           00647         call    Send_1;      // 28
01F5   2???           00648         call    Send_0;      // 29
01F6   2???           00649         call    Send_1;      // 30
01F7   2???           00650         call    Send_0;      // 31
01F8   2???           00651         call    Send_0;      // 32
01F9   2???           00652         call    Send_0;      // 33
01FA   2???           00653         call    Send_1;      // 34
01FB   2???           00654         call    Send_0;      // 35
01FC   2???           00655         call    Send_0;      // 36
01FD   2???           00656         call    Send_0;      // 37
01FE   2???           00657         call    Send_1;      // 38
01FF   2???           00658         call    Send_0;      // 39
0200   2???           00659         call    Send_1;      // 40
0201   2???           00660         call    Send_0;      // 41
0202   2???           00661         call    Send_1;      // 42
0203   2???           00662         call    Send_0;      // 43
0204   2???           00663         call    Send_1;      // 35
0205   2???           00664         call    Send_0;      // 36
0206   2???           00665         call    Send_0;      // 37
0207   2???           00666         call    Send_0;      // 38
0208   2???           00667         call    Send_1;      // 39
0209   2???           00668         call    Send_0;      // 40
020A   2???           00669         call    Send_1;      // 41
020B   2???           00670         call    Send_0;      // 42
020C   2???           00671         call    Send_1;      // 43
020D   2???           00672         call    Send_0;      // 44
020E   2???           00673         call    Send_1;      // 45
020F   2???           00674         call    Send_0;      // 46
0210   2???           00675         call    Send_0;      // 47
0211   2???           00676         call    Send_0;      // 48
0212   2???           00677         call    Send_1;      // 49
MPASM 5.77                           KEN.ASM   5-19-2019  5:34:27         PAGE 14


LOC  OBJECT CODE     LINE SOURCE TEXT
  VALUE

0213   2???           00678         call    Send_0;      // 50
0214   2???           00679         call    Send_1;      // 51
0215   2???           00680         call    Send_0;      // 52
0216   2???           00681         call    Send_0;      // 53
0217   2???           00682         call    Send_0;      // 54
0218   2???           00683         call    Send_1;      // 55
0219   2???           00684         call    Send_0;      // 56
021A   2???           00685         call    Send_1;      // 57
021B   2???           00686         call    Send_0;      // 58
021C   2???           00687         call    Send_1;      // 59
021D   2???           00688         call    Send_0;      // 60
021E   2???           00689         call    Send_1;      // 61
021F   2???           00690         call    Send_0;      // 62
0220   2???           00691         call    Send_0;      // 63
0221   2???           00692         call    Send_0;      // 64
0222   2???           00693         call    Send_1;      // 65
0223   2???           00694         call    Send_0;      // 66
0224   2???           00695         call    Send_0;      // 67
0225   2???           00696         call    Send_0;      // 68
0226   2???           00697         call    Send_1;      // 69
0227   2???           00698         call    Send_0;      // 70
0228   2???           00699         call    Send_1;      // 71
0229   2???           00700         call    Send_0;      // 72
022A   2???           00701         call    Send_0;      // 73
022B   2???           00702         call    Send_0;      // 74
022C   2???           00703         call    Send_1;      // 75
022D   2???           00704         call    Send_0;      // 76
022E   2???           00705         call    Send_1;      // 77
022F   2???           00706         call    Send_0;      // 78
0230   2???           00707         call    Send_0;      // 79
0231   2???           00708         call    Send_0;      // 80
0232   2???           00709         call    Send_1;      // 81
0233   2???           00710         call    Send_0;      // 82
0234   2???           00711         call    Send_0;      // 83
0235   2???           00712         call    Send_0;      // 84
0236   2???           00713         call    Send_1;      // 85
0237   2???           00714         call    Send_0;      // 86
0238   2???           00715         call    Send_0;      // 87
0239   2???           00716         call    Send_0;      // 88
023A   2???           00717         call    Send_1;      // 89
023B   2???           00718         call    Send_0;      // 90
023C   0008           00719         return
                      00720         
                      00721 ;-----------------------------------------------------------------------------
                      00722         
023D                  00723 cmvolumpas
023D   2???           00724         call    delayy9ms
023E   2???           00725         call    delayy4.5ms
023F   2???           00726         call    Send_1;      // 0
0240   2???           00727         call    Send_0;      // 1
0241   2???           00728         call    Send_0;      // 2
0242   2???           00729         call    Send_0;      // 3
0243   2???           00730         call    Send_1;      // 4
MPASM 5.77                           KEN.ASM   5-19-2019  5:34:27         PAGE 15


LOC  OBJECT CODE     LINE SOURCE TEXT
  VALUE

0244   2???           00731         call    Send_0;      // 5
0245   2???           00732         call    Send_1;      // 6
0246   2???           00733         call    Send_0;      // 7
0247   2???           00734         call    Send_1;      // 8
0248   2???           00735         call    Send_0;      // 9
0249   2???           00736         call    Send_0;      // 10
024A   2???           00737         call    Send_0;      // 11
024B   2???           00738         call    Send_1;      // 12
024C   2???           00739         call    Send_0;      // 13
024D   2???           00740         call    Send_0;      // 14
024E   2???           00741         call    Send_0;      // 15
024F   2???           00742         call    Send_1;      // 16
0250   2???           00743         call    Send_0;      // 17
0251   2???           00744         call    Send_0;      // 19
0252   2???           00745         call    Send_0;      // 20
0253   2???           00746         call    Send_1;      // 21
0254   2???           00747         call    Send_0;      // 22
0255   2???           00748         call    Send_1;      // 23
0256   2???           00749         call    Send_0;      // 25
0257   2???           00750         call    Send_0;      // 26
0258   2???           00751         call    Send_0;      // 27
0259   2???           00752         call    Send_1;      // 28
025A   2???           00753         call    Send_0;      // 29
025B   2???           00754         call    Send_1;      // 30
025C   2???           00755         call    Send_0;      // 31
025D   2???           00756         call    Send_0;      // 32
025E   2???           00757         call    Send_0;      // 33
025F   2???           00758         call    Send_1;      // 34
0260   2???           00759         call    Send_0;      // 35
0261   2???           00760         call    Send_0;      // 36
0262   2???           00761         call    Send_0;      // 37
0263   2???           00762         call    Send_1;      // 38
0264   2???           00763         call    Send_0;      // 39
0265   2???           00764         call    Send_1;      // 40
0266   2???           00765         call    Send_0;      // 41
0267   2???           00766         call    Send_1;      // 42
0268   2???           00767         call    Send_0;      // 43
0269   2???           00768         call    Send_1;      // 35
026A   2???           00769         call    Send_0;      // 36
026B   2???           00770         call    Send_0;      // 37
026C   2???           00771         call    Send_0;      // 38
026D   2???           00772         call    Send_1;      // 39
026E   2???           00773         call    Send_0;      // 40
026F   2???           00774         call    Send_1;      // 41
0270   2???           00775         call    Send_0;      // 42
0271   2???           00776         call    Send_0;      // 43
0272   2???           00777         call    Send_0;      // 44
0273   2???           00778         call    Send_1;      // 45
0274   2???           00779         call    Send_0;      // 46
0275   2???           00780         call    Send_1;      // 47
0276   2???           00781         call    Send_0;      // 48
0277   2???           00782         call    Send_0;      // 49
0278   2???           00783         call    Send_0;      // 50
MPASM 5.77                           KEN.ASM   5-19-2019  5:34:27         PAGE 16


LOC  OBJECT CODE     LINE SOURCE TEXT
  VALUE

0279   2???           00784         call    Send_1;      // 51
027A   2???           00785         call    Send_0;      // 52
027B   2???           00786         call    Send_1;      // 53
027C   2???           00787         call    Send_0;      // 54
027D   2???           00788         call    Send_0;      // 55
027E   2???           00789         call    Send_0;      // 56
027F   2???           00790         call    Send_1;      // 57
0280   2???           00791         call    Send_0;      // 58
0281   2???           00792         call    Send_1;      // 59
0282   2???           00793         call    Send_0;      // 60
0283   2???           00794         call    Send_1;      // 61
0284   2???           00795         call    Send_0;      // 62
0285   2???           00796         call    Send_1;      // 63
0286   2???           00797         call    Send_0;      // 64
0287   2???           00798         call    Send_1;      // 65
0288   2???           00799         call    Send_0;      // 66
0289   2???           00800         call    Send_0;      // 67
028A   2???           00801         call    Send_0;      // 68
028B   2???           00802         call    Send_1;      // 69
028C   2???           00803         call    Send_0;      // 70
028D   2???           00804         call    Send_1;      // 71
028E   2???           00805         call    Send_0;      // 72
028F   2???           00806         call    Send_0;      // 73
0290   2???           00807         call    Send_0;      // 74
0291   2???           00808         call    Send_1;      // 75
0292   2???           00809         call    Send_0;      // 76
0293   2???           00810         call    Send_1;      // 77
0294   2???           00811         call    Send_0;      // 78
0295   2???           00812         call    Send_0;      // 79
0296   2???           00813         call    Send_0;      // 80
0297   2???           00814         call    Send_1;      // 81
0298   2???           00815         call    Send_0;      // 82
0299   2???           00816         call    Send_0;      // 83
029A   2???           00817         call    Send_0;      // 84
029B   2???           00818         call    Send_1;      // 85
029C   2???           00819         call    Send_0;      // 86
029D   2???           00820         call    Send_0;      // 87
029E   2???           00821         call    Send_0;      // 88
029F   2???           00822         call    Send_1;      // 89
02A0   2???           00823         call    Send_0;      // 90
02A1   0008           00824         return
                      00825         
                      00826 ;-----------------------------------------------------------------------------
02A2                  00827 Send_1 ; ???????????? 527 ???.
02A2   3014           00828         movlw   d'20'
02A3   00BC           00829         movwf   fCOUNTER
02A4                  00830 Send1_Loop
02A4   1505           00831         bsf     IR_LED
02A5   0000           00832         nop
02A6   0000           00833         nop
02A7   0000           00834         nop
02A8   0000           00835         nop
02A9   0000           00836         nop
MPASM 5.77                           KEN.ASM   5-19-2019  5:34:27         PAGE 17


LOC  OBJECT CODE     LINE SOURCE TEXT
  VALUE

02AA   0000           00837         nop
02AB   0000           00838         nop
02AC   0000           00839         nop
02AD   0000           00840         nop
02AE   0000           00841         nop
02AF   0000           00842         nop
02B0   0000           00843         nop
02B1   1105           00844         bcf     IR_LED
02B2   0000           00845         nop
02B3   0000           00846         nop
02B4   0000           00847         nop
02B5   0000           00848         nop
02B6   0000           00849         nop
02B7   0000           00850         nop
02B8   0000           00851         nop
02B9   0000           00852         nop
02BA   0000           00853         nop
02BB   0000           00854         nop
02BC   0BBC           00855         decfsz  fCOUNTER,1
02BD   2???           00856         goto    Send1_Loop
02BE   0008           00857         return
                      00858 ;-----------------------------------------------------------------------------
02BF                  00859 Send_0 ; ???????????? 527 ???.
02BF   3014           00860         movlw   d'20'
02C0   00BC           00861         movwf   fCOUNTER
02C1                  00862 Send0_Loop
02C1   1105           00863         bcf     IR_LED
02C2   0000           00864         nop
02C3   0000           00865         nop
02C4   0000           00866         nop
02C5   0000           00867         nop
02C6   0000           00868         nop
02C7   0000           00869         nop
02C8   0000           00870         nop
02C9   0000           00871         nop
02CA   0000           00872         nop
02CB   0000           00873         nop
02CC   0000           00874         nop
02CD   0000           00875         nop
02CE   1105           00876         bcf     IR_LED
02CF   0000           00877         nop
02D0   0000           00878         nop
02D1   0000           00879         nop
02D2   0000           00880         nop
02D3   0000           00881         nop
02D4   0000           00882         nop
02D5   0000           00883         nop
02D6   0000           00884         nop
02D7   0000           00885         nop
02D8   0000           00886         nop
02D9   0BBC           00887         decfsz  fCOUNTER,1
02DA   2???           00888         goto    Send0_Loop
02DB   0008           00889         return
MPASM 5.77                           KEN.ASM   5-19-2019  5:34:27         PAGE 18


LOC  OBJECT CODE     LINE SOURCE TEXT
  VALUE

                      00890 ;-----------------------------------------------------------------------------
02DC                  00891 delayy9ms 
                      00892          
02DC   30C8           00893         movlw   d'200'
02DD   00BC           00894         movwf   fCOUNTER
02DE                  00895 Send0_Loopp
02DE   1505           00896         bsf     IR_LED
02DF   0000           00897         nop
02E0   0000           00898         nop
02E1   0000           00899         nop
02E2   0000           00900         nop
02E3   0000           00901         nop
02E4   0000           00902         nop
02E5   0000           00903         nop
02E6   0000           00904         nop
02E7   0000           00905         nop
02E8   0000           00906         nop
02E9   0000           00907         nop
02EA   0000           00908         nop
02EB   1105           00909         bcf     IR_LED
02EC   0000           00910         nop
02ED   0000           00911         nop
02EE   0000           00912         nop
02EF   0000           00913         nop
02F0   0000           00914         nop
02F1   0000           00915         nop
02F2   0000           00916         nop
02F3   0000           00917         nop
02F4   0000           00918         nop
02F5   0000           00919         nop
02F6   0BBC           00920         decfsz  fCOUNTER,1
02F7   2???           00921         goto    Send0_Loopp
                      00922         
02F8   3084           00923         movlw   d'132'
02F9   00BC           00924         movwf   fCOUNTER
02FA                  00925 Send0_Loopp1
02FA   1505           00926         bsf     IR_LED
02FB   0000           00927         nop
02FC   0000           00928         nop
02FD   0000           00929         nop
02FE   0000           00930         nop
02FF   0000           00931         nop
0300   0000           00932         nop
0301   0000           00933         nop
0302   0000           00934         nop
0303   0000           00935         nop
0304   0000           00936         nop
0305   0000           00937         nop
0306   0000           00938         nop
0307   1105           00939         bcf     IR_LED
0308   0000           00940         nop
0309   0000           00941         nop
030A   0000           00942         nop
MPASM 5.77                           KEN.ASM   5-19-2019  5:34:27         PAGE 19


LOC  OBJECT CODE     LINE SOURCE TEXT
  VALUE

030B   0000           00943         nop
030C   0000           00944         nop
030D   0000           00945         nop
030E   0000           00946         nop
030F   0000           00947         nop
0310   0000           00948         nop
0311   0000           00949         nop
0312   0BBC           00950         decfsz  fCOUNTER,1
0313   2???           00951         goto    Send0_Loopp1
0314   0008           00952         return
                      00953         
                      00954         
0315                  00955 delayy4.5ms     
0315   30D7           00956         movlw       .215
0316   00B1           00957         movwf       Reg_1
0317   3006           00958         movlw       .6
0318   00B2           00959         movwf       Reg_2
0319   0BB1           00960         decfsz      Reg_1,F
031A   2???           00961         goto        $-1
031B   0BB2           00962         decfsz      Reg_2,F
031C   2???           00963         goto        $-3
031D   0008           00964         return
                      00965 ;-----------------------------------------------------------------------------  
                      00966 
0014                  00967         end
MPASM 5.77                           KEN.ASM   5-19-2019  5:34:27         PAGE 20


SYMBOL TABLE
  LABEL                             VALUE 

ADCON0                            0000001F
ADCS0                             00000004
ADCS1                             00000005
ADCS2                             00000006
ADFM                              00000007
ADIE                              00000006
ADIF                              00000006
ADON                              00000000
ADRESH                            0000001E
ADRESL                            0000009E
ANS0                              00000000
ANS1                              00000001
ANS2                              00000002
ANS3                              00000003
ANSEL                             0000009F
BD_Loop94                         000000A0
Big_delay                         0000009E
C                                 00000000
CAL0                              00000002
CAL1                              00000003
CAL2                              00000004
CAL3                              00000005
CAL4                              00000006
CAL5                              00000007
CHS0                              00000002
CHS1                              00000003
CINV                              00000004
CIS                               00000003
CM0                               00000000
CM1                               00000001
CM2                               00000002
CMCON                             00000019
CMIE                              00000003
CMIF                              00000003
COUT                              00000006
DC                                00000001
D_Loop36                          000000A6
EEADR                             0000009B
EECON1                            0000009C
EECON2                            0000009D
EEDAT                             0000009A
EEDATA                            0000009A
EEIE                              00000007
EEIF                              00000007
F                                 00000001
FSR                               00000004
GIE                               00000007
GO                                00000001
GO_DONE                           00000001
GO_NOT_DONE                       00000001
GP0                               00000000
GP1                               00000001
GP2                               00000002
MPASM 5.77                           KEN.ASM   5-19-2019  5:34:27         PAGE 21


SYMBOL TABLE
  LABEL                             VALUE 

GP3                               00000003
GP4                               00000004
GP5                               00000005
GPIE                              00000003
GPIF                              00000000
GPIO                              00000005
GPIO0                             00000000
GPIO1                             00000001
GPIO2                             00000002
GPIO3                             00000003
GPIO4                             00000004
GPIO5                             00000005
INDF                              00000000
INTCON                            0000000B
INTE                              00000004
INTEDG                            00000006
INTF                              00000001
IOC                               00000096
IOC0                              00000000
IOC1                              00000001
IOC2                              00000002
IOC3                              00000003
IOC4                              00000004
IOC5                              00000005
IOCB                              00000096
IOCB0                             00000000
IOCB1                             00000001
IOCB2                             00000002
IOCB3                             00000003
IOCB4                             00000004
IOCB5                             00000005
IRP                               00000007
IR_LED                            GPIO,2
Init                              00000001
LED                               00000048
Main_Loop                         00000080
Mainloop                          00000033
NOT_BOD                           00000000
NOT_BOR                           00000000
NOT_DONE                          00000001
NOT_GPPU                          00000007
NOT_PD                            00000003
NOT_POR                           00000001
NOT_T1SYNC                        00000002
NOT_TO                            00000004
OPTION_REG                        00000081
OSCCAL                            00000090
PCL                               00000002
PCLATH                            0000000A
PCON                              0000008E
PEIE                              00000006
PIE1                              0000008C
PIR1                              0000000C
MPASM 5.77                           KEN.ASM   5-19-2019  5:34:27         PAGE 22


SYMBOL TABLE
  LABEL                             VALUE 

PS0                               00000000
PS1                               00000001
PS2                               00000002
PSA                               00000003
RD                                00000000
RP0                               00000005
RP1                               00000006
Reg_1                             00000031
Reg_2                             00000032
Reg_3                             00000033
Reg_4                             00000034
Reg_5                             00000035
Reg_6                             00000036
STATUS                            00000003
Sec1                              0000003E
Send0_Loop                        000002C1
Send0_Loopp                       000002DE
Send0_Loopp1                      000002FA
Send1_Loop                        000002A4
Send_0                            000002BF
Send_1                            000002A2
T0CS                              00000005
T0IE                              00000005
T0IF                              00000002
T0SE                              00000004
T1CKPS0                           00000004
T1CKPS1                           00000005
T1CON                             00000010
T1IE                              00000000
T1IF                              00000000
T1OSCEN                           00000003
TMR0                              00000001
TMR0IE                            00000005
TMR0IF                            00000002
TMR1                              0000000E
TMR1CS                            00000001
TMR1GE                            00000006
TMR1H                             0000000F
TMR1IE                            00000000
TMR1IF                            00000000
TMR1L                             0000000E
TMR1ON                            00000000
TRISIO                            00000085
TRISIO0                           00000000
TRISIO1                           00000001
TRISIO2                           00000002
TRISIO3                           00000003
TRISIO4                           00000004
TRISIO5                           00000005
UMessen1                          00000036
VCFG                              00000006
VR0                               00000000
VR1                               00000001
MPASM 5.77                           KEN.ASM   5-19-2019  5:34:27         PAGE 23


SYMBOL TABLE
  LABEL                             VALUE 

VR2                               00000002
VR3                               00000003
VRCON                             00000099
VREN                              00000007
VRR                               00000005
W                                 00000000
WPU                               00000095
WPU0                              00000000
WPU1                              00000001
WPU2                              00000002
WPU4                              00000004
WPU5                              00000005
WR                                00000001
WREN                              00000002
WRERR                             00000003
Z                                 00000002
_.org_0_0044                      00000044
_.org_0_0046                      00000046
_.org_0_031A                      0000031A
_.org_0_031C                      0000031C
_BODEN_OFF                        00003FBF
_BODEN_ON                         00003FFF
_BOREN_OFF                        00003FBF
_BOREN_ON                         00003FFF
_CONFIG                           00002007
_CPD_OFF                          00003FFF
_CPD_ON                           00003EFF
_CP_OFF                           00003FFF
_CP_ON                            00003F7F
_DEVID1                           00002006
_EC_OSC                           00003FFB
_EXTRC_OSC_CLKOUT                 00003FFF
_EXTRC_OSC_NOCLKOUT               00003FFE
_FOSC_EC                          00003FFB
_FOSC_EXTRCCLK                    00003FFF
_FOSC_EXTRCIO                     00003FFE
_FOSC_HS                          00003FFA
_FOSC_INTRCCLK                    00003FFD
_FOSC_INTRCIO                     00003FFC
_FOSC_LP                          00003FF8
_FOSC_XT                          00003FF9
_HS_OSC                           00003FFA
_IDLOC0                           00002000
_IDLOC1                           00002001
_IDLOC2                           00002002
_IDLOC3                           00002003
_INTRC_OSC_CLKOUT                 00003FFD
_INTRC_OSC_NOCLKOUT               00003FFC
_LP_OSC                           00003FF8
_MCLRE_OFF                        00003FDF
_MCLRE_ON                         00003FFF
_PWRTE_OFF                        00003FFF
_PWRTE_ON                         00003FEF
MPASM 5.77                           KEN.ASM   5-19-2019  5:34:27         PAGE 24


SYMBOL TABLE
  LABEL                             VALUE 

_WDTE_OFF                         00003FF7
_WDTE_ON                          00003FFF
_WDT_OFF                          00003FF7
_WDT_ON                           00003FFF
_XT_OSC                           00003FF9
__12F675                          00000001
c                                 00000092
cmmode                            0000010E
cmpower                           000000A9
cmseek                            00000173
cmvolumpas                        0000023D
cmvolumtepa                       000001D8
count                             00000026
delay                             000000A5
delayy4.5ms                       00000315
delayy9ms                         000002DC
f0                                00000029
f1                                0000002A
fCOUNTER                          0000003C
fCOUNTER2                         0000003D
loop                              00000037
loops                             00000027
loops2                            00000028
mode                              00000064
modemax                           0000002D
modemin                           0000002E
power                             0000005D
powermax                          0000002B
powermin                          0000002C
seek                              0000006B
seekmax                           00000037
seekmin                           00000038
volumpas                          00000079
volumpasmax                       0000003A
volumpasmin                       0000003B
volumtepa                         00000072
volumtepamax                      00000039
volumtepamin                      00000030

Errors   :     0
Warnings :     2 reported,     0 suppressed
Messages :     0 reported,    14 suppressed

