

Microchip Technology PIC LITE Macro Assembler V2.00 build -1524193055 
                                                                                               Fri Jul 02 14:58:13 2021

Microchip Technology Omniscient Code Generator v2.00 (Free mode) build 20180527130849
     1  0000                     
      + 0000                     
     2                           ; Version 2.00
     3                           ; Generated 27/05/2018 GMT
     4                           
     5                           ; 
     6                           ; Copyright © 2018, Microchip Technology Inc. and its subsidiaries ("Microchip")
     7                           ; All rights reserved.
     8                           ; 
     9                           ; This software is developed by Microchip Technology Inc. and its subsidiaries ("Microch
                                 ip").
    10                           ; 
    11                           ; Redistribution and use in source and binary forms, with or without modification, are
    12                           ; permitted provided that the following conditions are met:
    13                           ; 
    14                           ;     1. Redistributions of source code must retain the above copyright notice, this lis
                                 t of
    15                           ;        conditions and the following disclaimer.
    16                           ; 
    17                           ;     2. Redistributions in binary form must reproduce the above copyright notice, this 
                                 list
    18                           ;        of conditions and the following disclaimer in the documentation and/or other
    19                           ;        materials provided with the distribution.
    20                           ; 
    21                           ;     3. Microchip's name may not be used to endorse or promote products derived from th
                                 is
    22                           ;        software without specific prior written permission.
    23                           ; 
    24                           ; THIS SOFTWARE IS PROVIDED BY MICROCHIP "AS IS" AND ANY EXPRESS OR IMPLIED WARRANTIES,

    25                           ; INCLUDING, BUT NOT LIMITED TO, THE IMPLIED WARRANTIES OF MERCHANTABILITY AND FITNESS F
                                 OR
    26                           ; PURPOSE ARE DISCLAIMED.  IN NO EVENT SHALL MICROCHIP BE LIABLE FOR ANY DIRECT, INDIREC
                                 T,
    27                           ; INCIDENTAL, SPECIAL, EXEMPLARY, OR CONSEQUENTIAL DAMAGES (INCLUDING BUT NOT LIMITED TO
                                 
    28                           ; PROCUREMENT OF SUBSTITUTE GOODS OR SERVICES; LOSS OF USE, DATA OR PROFITS; OR BUSINESS
                                 
    29                           ; INTERRUPTION) HOWSOEVER CAUSED AND ON ANY THEORY OF LIABILITY, WHETHER IN CONTRACT, ST
                                 RICT
    30                           ; LIABILITY, OR TORT (INCLUDING NEGLIGENCE OR OTHERWISE) ARISING IN ANY WAY OUT OF THE U
                                 SE OF
    31                           ; THIS SOFTWARE, EVEN IF ADVISED OF THE POSSIBILITY OF SUCH DAMAGE.
    32                           ; 
    33                           
    34                           
    35                           ; 
    36                           ; Code-generator required, PIC16F628A Definitions
    37                           ; 
    38  0004                     fsr0 equ 04h
    39  0004                     indf equ 00h
    40  0000                     indf0 equ 00h
    41  0000                     pc equ 02h
    42  0002                     pcl equ 02h
    43  0002                     pclath equ 0Ah
    44  000A                     status equ 03h
    45  0003                     
     2                           opt pagewidth 120
     3  0000                     byte0	macro	val
     4                           	(getbyte(val,0))
     5                           endm
     6  0000                     byte1	macro	val
     7                           	(getbyte(val,1))
     8                           endm
     9  0000                     byte2	macro	val
    10                           	(getbyte(val,2))
    11                           endm
    12  0000                     byte3	macro	val
    13                           	(getbyte(val,3))
    14                           endm
    15  0000                     byte4	macro	val
    16                           	(getbyte(val,4))
    17                           endm
    18  0000                     byte5	macro	val
    19                           	(getbyte(val,5))
    20                           endm
    21  0000                     byte6	macro	val
    22                           	(getbyte(val,6))
    23                           endm
    24  0000                     byte7	macro	val
    25                           	(getbyte(val,7))
    26                           endm
    27  0000                     getword	macro	val,pos
    28                           	(((val) >> (8 * pos)) and 0xffff)
    29                           endm
    30  0000                     word0	macro	val
    31                           	(getword(val,0))
    32                           endm
    33  0000                     word1	macro	val
    34                           	(getword(val,2))
    35                           endm
    36  0000                     word2	macro	val
    37                           	(getword(val,4))
    38                           endm
    39  0000                     word3	macro	val
    40                           	(getword(val,6))
    41                           endm
    42  0000                     gettword	macro	val,pos
    43                           	(((val) >> (8 * pos)) and 0xffffff)
    44                           endm
    45  0000                     tword0	macro	val
    46                           	(gettword(val,0))
    47                           endm
    48  0000                     tword1	macro	val
    49                           	(gettword(val,3))
    50                           endm
    51  0000                     tword2	macro	val
    52                           	(gettword(val,6))
    53                           endm
    54  0000                     getdword	macro	val,pos
    55                           	(((val) >> (8 * pos)) and 0xffffffff)
    56                           endm
    57  0000                     dword0	macro	val
    58                           	(getdword(val,0))
    59                           endm
    60  0000                     dword1	macro	val
    61                           	(getdword(val,4))
    62                           endm
    63  0000                     clrc	macro
    64                           	bcf	3,0
    65                           	endm
    66  0000                     clrz	macro
    67                           	bcf	3,2
    68                           	endm
    69  0000                     setc	macro
    70                           	bsf	3,0
    71                           	endm
    72  0000                     setz	macro
    73                           	bsf	3,2
    74                           	endm
    75  0000                     skipc	macro
    76                           	btfss	3,0
    77                           	endm
    78  0000                     skipz	macro
    79                           	btfss	3,2
    80                           	endm
    81  0000                     skipnc	macro
    82                           	btfsc	3,0
    83                           	endm
    84  0000                     skipnz	macro
    85                           	btfsc	3,2
    86                           	endm
    87  0000                     # 54 "C:\Program Files (x86)\Microchip\xc8\v2.00\pic\include\pic16f628a.h"
    88                           INDF equ 00h ;# 
    89  0000                     # 61 "C:\Program Files (x86)\Microchip\xc8\v2.00\pic\include\pic16f628a.h"
    90                           TMR0 equ 01h ;# 
    91  0001                     # 68 "C:\Program Files (x86)\Microchip\xc8\v2.00\pic\include\pic16f628a.h"
    92                           PCL equ 02h ;# 
    93  0002                     # 75 "C:\Program Files (x86)\Microchip\xc8\v2.00\pic\include\pic16f628a.h"
    94                           STATUS equ 03h ;# 
    95  0003                     # 161 "C:\Program Files (x86)\Microchip\xc8\v2.00\pic\include\pic16f628a.h"
    96                           FSR equ 04h ;# 
    97  0004                     # 168 "C:\Program Files (x86)\Microchip\xc8\v2.00\pic\include\pic16f628a.h"
    98                           PORTA equ 05h ;# 
    99  0005                     # 230 "C:\Program Files (x86)\Microchip\xc8\v2.00\pic\include\pic16f628a.h"
   100                           PORTB equ 06h ;# 
   101  0006                     # 292 "C:\Program Files (x86)\Microchip\xc8\v2.00\pic\include\pic16f628a.h"
   102                           PCLATH equ 0Ah ;# 
   103  000A                     # 312 "C:\Program Files (x86)\Microchip\xc8\v2.00\pic\include\pic16f628a.h"
   104                           INTCON equ 0Bh ;# 
   105  000B                     # 390 "C:\Program Files (x86)\Microchip\xc8\v2.00\pic\include\pic16f628a.h"
   106                           PIR1 equ 0Ch ;# 
   107  000C                     # 447 "C:\Program Files (x86)\Microchip\xc8\v2.00\pic\include\pic16f628a.h"
   108                           TMR1 equ 0Eh ;# 
   109  000E                     # 454 "C:\Program Files (x86)\Microchip\xc8\v2.00\pic\include\pic16f628a.h"
   110                           TMR1L equ 0Eh ;# 
   111  000E                     # 461 "C:\Program Files (x86)\Microchip\xc8\v2.00\pic\include\pic16f628a.h"
   112                           TMR1H equ 0Fh ;# 
   113  000F                     # 468 "C:\Program Files (x86)\Microchip\xc8\v2.00\pic\include\pic16f628a.h"
   114                           T1CON equ 010h ;# 
   115  0010                     # 527 "C:\Program Files (x86)\Microchip\xc8\v2.00\pic\include\pic16f628a.h"
   116                           TMR2 equ 011h ;# 
   117  0011                     # 534 "C:\Program Files (x86)\Microchip\xc8\v2.00\pic\include\pic16f628a.h"
   118                           T2CON equ 012h ;# 
   119  0012                     # 605 "C:\Program Files (x86)\Microchip\xc8\v2.00\pic\include\pic16f628a.h"
   120                           CCPR1 equ 015h ;# 
   121  0015                     # 612 "C:\Program Files (x86)\Microchip\xc8\v2.00\pic\include\pic16f628a.h"
   122                           CCPR1L equ 015h ;# 
   123  0015                     # 619 "C:\Program Files (x86)\Microchip\xc8\v2.00\pic\include\pic16f628a.h"
   124                           CCPR1H equ 016h ;# 
   125  0016                     # 626 "C:\Program Files (x86)\Microchip\xc8\v2.00\pic\include\pic16f628a.h"
   126                           CCP1CON equ 017h ;# 
   127  0017                     # 684 "C:\Program Files (x86)\Microchip\xc8\v2.00\pic\include\pic16f628a.h"
   128                           RCSTA equ 018h ;# 
   129  0018                     # 755 "C:\Program Files (x86)\Microchip\xc8\v2.00\pic\include\pic16f628a.h"
   130                           TXREG equ 019h ;# 
   131  0019                     # 762 "C:\Program Files (x86)\Microchip\xc8\v2.00\pic\include\pic16f628a.h"
   132                           RCREG equ 01Ah ;# 
   133  001A                     # 769 "C:\Program Files (x86)\Microchip\xc8\v2.00\pic\include\pic16f628a.h"
   134                           CMCON equ 01Fh ;# 
   135  001F                     # 839 "C:\Program Files (x86)\Microchip\xc8\v2.00\pic\include\pic16f628a.h"
   136                           OPTION_REG equ 081h ;# 
   137  0081                     # 909 "C:\Program Files (x86)\Microchip\xc8\v2.00\pic\include\pic16f628a.h"
   138                           TRISA equ 085h ;# 
   139  0085                     # 971 "C:\Program Files (x86)\Microchip\xc8\v2.00\pic\include\pic16f628a.h"
   140                           TRISB equ 086h ;# 
   141  0086                     # 1033 "C:\Program Files (x86)\Microchip\xc8\v2.00\pic\include\pic16f628a.h"
   142                           PIE1 equ 08Ch ;# 
   143  008C                     # 1090 "C:\Program Files (x86)\Microchip\xc8\v2.00\pic\include\pic16f628a.h"
   144                           PCON equ 08Eh ;# 
   145  008E                     # 1139 "C:\Program Files (x86)\Microchip\xc8\v2.00\pic\include\pic16f628a.h"
   146                           PR2 equ 092h ;# 
   147  0092                     # 1146 "C:\Program Files (x86)\Microchip\xc8\v2.00\pic\include\pic16f628a.h"
   148                           TXSTA equ 098h ;# 
   149  0098                     # 1203 "C:\Program Files (x86)\Microchip\xc8\v2.00\pic\include\pic16f628a.h"
   150                           SPBRG equ 099h ;# 
   151  0099                     # 1210 "C:\Program Files (x86)\Microchip\xc8\v2.00\pic\include\pic16f628a.h"
   152                           EEDATA equ 09Ah ;# 
   153  009A                     # 1217 "C:\Program Files (x86)\Microchip\xc8\v2.00\pic\include\pic16f628a.h"
   154                           EEADR equ 09Bh ;# 
   155  009B                     # 1224 "C:\Program Files (x86)\Microchip\xc8\v2.00\pic\include\pic16f628a.h"
   156                           EECON1 equ 09Ch ;# 
   157  009C                     # 1262 "C:\Program Files (x86)\Microchip\xc8\v2.00\pic\include\pic16f628a.h"
   158                           EECON2 equ 09Dh ;# 
   159  009D                     # 1269 "C:\Program Files (x86)\Microchip\xc8\v2.00\pic\include\pic16f628a.h"
   160                           VRCON equ 09Fh ;# 
   161  009F                     # 54 "C:\Program Files (x86)\Microchip\xc8\v2.00\pic\include\pic16f628a.h"
   162                           INDF equ 00h ;# 
   163  0000                     # 61 "C:\Program Files (x86)\Microchip\xc8\v2.00\pic\include\pic16f628a.h"
   164                           TMR0 equ 01h ;# 
   165  0001                     # 68 "C:\Program Files (x86)\Microchip\xc8\v2.00\pic\include\pic16f628a.h"
   166                           PCL equ 02h ;# 
   167  0002                     # 75 "C:\Program Files (x86)\Microchip\xc8\v2.00\pic\include\pic16f628a.h"
   168                           STATUS equ 03h ;# 
   169  0003                     # 161 "C:\Program Files (x86)\Microchip\xc8\v2.00\pic\include\pic16f628a.h"
   170                           FSR equ 04h ;# 
   171  0004                     # 168 "C:\Program Files (x86)\Microchip\xc8\v2.00\pic\include\pic16f628a.h"
   172                           PORTA equ 05h ;# 
   173  0005                     # 230 "C:\Program Files (x86)\Microchip\xc8\v2.00\pic\include\pic16f628a.h"
   174                           PORTB equ 06h ;# 
   175  0006                     # 292 "C:\Program Files (x86)\Microchip\xc8\v2.00\pic\include\pic16f628a.h"
   176                           PCLATH equ 0Ah ;# 
   177  000A                     # 312 "C:\Program Files (x86)\Microchip\xc8\v2.00\pic\include\pic16f628a.h"
   178                           INTCON equ 0Bh ;# 
   179  000B                     # 390 "C:\Program Files (x86)\Microchip\xc8\v2.00\pic\include\pic16f628a.h"
   180                           PIR1 equ 0Ch ;# 
   181  000C                     # 447 "C:\Program Files (x86)\Microchip\xc8\v2.00\pic\include\pic16f628a.h"
   182                           TMR1 equ 0Eh ;# 
   183  000E                     # 454 "C:\Program Files (x86)\Microchip\xc8\v2.00\pic\include\pic16f628a.h"
   184                           TMR1L equ 0Eh ;# 
   185  000E                     # 461 "C:\Program Files (x86)\Microchip\xc8\v2.00\pic\include\pic16f628a.h"
   186                           TMR1H equ 0Fh ;# 
   187  000F                     # 468 "C:\Program Files (x86)\Microchip\xc8\v2.00\pic\include\pic16f628a.h"
   188                           T1CON equ 010h ;# 
   189  0010                     # 527 "C:\Program Files (x86)\Microchip\xc8\v2.00\pic\include\pic16f628a.h"
   190                           TMR2 equ 011h ;# 
   191  0011                     # 534 "C:\Program Files (x86)\Microchip\xc8\v2.00\pic\include\pic16f628a.h"
   192                           T2CON equ 012h ;# 
   193  0012                     # 605 "C:\Program Files (x86)\Microchip\xc8\v2.00\pic\include\pic16f628a.h"
   194                           CCPR1 equ 015h ;# 
   195  0015                     # 612 "C:\Program Files (x86)\Microchip\xc8\v2.00\pic\include\pic16f628a.h"
   196                           CCPR1L equ 015h ;# 
   197  0015                     # 619 "C:\Program Files (x86)\Microchip\xc8\v2.00\pic\include\pic16f628a.h"
   198                           CCPR1H equ 016h ;# 
   199  0016                     # 626 "C:\Program Files (x86)\Microchip\xc8\v2.00\pic\include\pic16f628a.h"
   200                           CCP1CON equ 017h ;# 
   201  0017                     # 684 "C:\Program Files (x86)\Microchip\xc8\v2.00\pic\include\pic16f628a.h"
   202                           RCSTA equ 018h ;# 
   203  0018                     # 755 "C:\Program Files (x86)\Microchip\xc8\v2.00\pic\include\pic16f628a.h"
   204                           TXREG equ 019h ;# 
   205  0019                     # 762 "C:\Program Files (x86)\Microchip\xc8\v2.00\pic\include\pic16f628a.h"
   206                           RCREG equ 01Ah ;# 
   207  001A                     # 769 "C:\Program Files (x86)\Microchip\xc8\v2.00\pic\include\pic16f628a.h"
   208                           CMCON equ 01Fh ;# 
   209  001F                     # 839 "C:\Program Files (x86)\Microchip\xc8\v2.00\pic\include\pic16f628a.h"
   210                           OPTION_REG equ 081h ;# 
   211  0081                     # 909 "C:\Program Files (x86)\Microchip\xc8\v2.00\pic\include\pic16f628a.h"
   212                           TRISA equ 085h ;# 
   213  0085                     # 971 "C:\Program Files (x86)\Microchip\xc8\v2.00\pic\include\pic16f628a.h"
   214                           TRISB equ 086h ;# 
   215  0086                     # 1033 "C:\Program Files (x86)\Microchip\xc8\v2.00\pic\include\pic16f628a.h"
   216                           PIE1 equ 08Ch ;# 
   217  008C                     # 1090 "C:\Program Files (x86)\Microchip\xc8\v2.00\pic\include\pic16f628a.h"
   218                           PCON equ 08Eh ;# 
   219  008E                     # 1139 "C:\Program Files (x86)\Microchip\xc8\v2.00\pic\include\pic16f628a.h"
   220                           PR2 equ 092h ;# 
   221  0092                     # 1146 "C:\Program Files (x86)\Microchip\xc8\v2.00\pic\include\pic16f628a.h"
   222                           TXSTA equ 098h ;# 
   223  0098                     # 1203 "C:\Program Files (x86)\Microchip\xc8\v2.00\pic\include\pic16f628a.h"
   224                           SPBRG equ 099h ;# 
   225  0099                     # 1210 "C:\Program Files (x86)\Microchip\xc8\v2.00\pic\include\pic16f628a.h"
   226                           EEDATA equ 09Ah ;# 
   227  009A                     # 1217 "C:\Program Files (x86)\Microchip\xc8\v2.00\pic\include\pic16f628a.h"
   228                           EEADR equ 09Bh ;# 
   229  009B                     # 1224 "C:\Program Files (x86)\Microchip\xc8\v2.00\pic\include\pic16f628a.h"
   230                           EECON1 equ 09Ch ;# 
   231  009C                     # 1262 "C:\Program Files (x86)\Microchip\xc8\v2.00\pic\include\pic16f628a.h"
   232                           EECON2 equ 09Dh ;# 
   233  009D                     # 1269 "C:\Program Files (x86)\Microchip\xc8\v2.00\pic\include\pic16f628a.h"
   234                           VRCON equ 09Fh ;# 
   235  009F                     	FNCALL	_main,_flicker
   236                           	FNCALL	_main,_magnitafon
   237                           	FNCALL	_main,_ohrana
   238                           	FNCALL	_main,_ohranastart
   239                           	FNCALL	_main,_start
   240                           	FNCALL	_main,_stop
   241                           	FNCALL	_main,_zajiganiya
   242                           	FNCALL	_main,_zvuk
   243                           	FNCALL	_magnitafon,_start
   244                           	FNCALL	_magnitafon,_zvuk
   245                           	FNCALL	_flicker,_ohranastart
   246                           	FNROOT	_main
   247                           	global	_starts
   248                           	global	_status
   249                           	global	_u
   250                           	global	_i
   251                           	global	_CMCON
   252                           _CMCON	set	0x1F
   253  001F                     	global	_PORTB
   254                           _PORTB	set	0x6
   255  0006                     	global	_PORTA
   256                           _PORTA	set	0x5
   257  0005                     	global	_PORTBbits
   258                           _PORTBbits	set	0x6
   259  0006                     	global	_PORTAbits
   260                           _PORTAbits	set	0x5
   261  0005                     	global	_OPTION_REG
   262                           _OPTION_REG	set	0x81
   263  0081                     	global	_TRISB
   264                           _TRISB	set	0x86
   265  0086                     	global	_TRISA
   266                           _TRISA	set	0x85
   267  0085                     ; #config settings
   268                           global __CFG_FOSC$INTOSCIO
   269                           __CFG_FOSC$INTOSCIO equ 0x0
   270  0000                     global __CFG_WDTE$OFF
   271                           __CFG_WDTE$OFF equ 0x0
   272  0000                     global __CFG_PWRTE$OFF
   273                           __CFG_PWRTE$OFF equ 0x0
   274  0000                     global __CFG_MCLRE$OFF
   275                           __CFG_MCLRE$OFF equ 0x0
   276  0000                     global __CFG_BOREN$OFF
   277                           __CFG_BOREN$OFF equ 0x0
   278  0000                     global __CFG_LVP$OFF
   279                           __CFG_LVP$OFF equ 0x0
   280  0000                     global __CFG_CPD$ON
   281                           __CFG_CPD$ON equ 0x0
   282  0000                     global __CFG_CP$ON
   283                           __CFG_CP$ON equ 0x0
   284  0000                     	file	"C:\Users\User\AppData\Local\Temp\sd68."
   285                           	line	#
   286                           psect cinit,class=CODE,delta=2
   287                           global start_initialization
   288                           start_initialization:
   289  07FA                     
   290                           global __initialization
   291                           __initialization:
   292  07FA                     psect	bssCOMMON,class=COMMON,space=1,noexec
   293                           global __pbssCOMMON
   294                           __pbssCOMMON:
   295  0078                     _starts:
   296  0078                            ds      1
   297  0078                     
   298                           _status:
   299  0079                            ds      1
   300  0079                     
   301                           _u:
   302  007A                            ds      1
   303  007A                     
   304                           _i:
   305  007B                            ds      1
   306  007B                     
   307                           	file	"C:\Users\User\AppData\Local\Temp\sd68."
   308                           	line	#
   309                           ; Clear objects allocated to COMMON
   310                           psect cinit,class=CODE,delta=2,merge=1
   311                           	clrf	((__pbssCOMMON)+0)&07Fh
   312  07FA  01F8               	clrf	((__pbssCOMMON)+1)&07Fh
   313  07FB  01F9               	clrf	((__pbssCOMMON)+2)&07Fh
   314  07FC  01FA               	clrf	((__pbssCOMMON)+3)&07Fh
   315  07FD  01FB               psect cinit,class=CODE,delta=2,merge=1
   316                           global end_of_initialization,__end_of__initialization
   317                           
   318                           ;End of C runtime variable initialization code
   319                           
   320                           end_of_initialization:
   321  07FE                     __end_of__initialization:
   322  07FE                     clrf status
   323  07FE  0183               ljmp _main	;jump to C main() function
   324  07FF  2E28               psect	cstackCOMMON,class=COMMON,space=1,noexec
   325                           global __pcstackCOMMON
   326                           __pcstackCOMMON:
   327  0070                     ?_zvuk:	; 1 bytes @ 0x0
   328  0070                     ??_zvuk:	; 1 bytes @ 0x0
   329  0070                     ?_ohranastart:	; 1 bytes @ 0x0
   330  0070                     ??_ohranastart:	; 1 bytes @ 0x0
   331  0070                     ?_flicker:	; 1 bytes @ 0x0
   332  0070                     ??_flicker:	; 1 bytes @ 0x0
   333  0070                     ?_ohrana:	; 1 bytes @ 0x0
   334  0070                     ??_ohrana:	; 1 bytes @ 0x0
   335  0070                     ?_start:	; 1 bytes @ 0x0
   336  0070                     ??_start:	; 1 bytes @ 0x0
   337  0070                     ?_stop:	; 1 bytes @ 0x0
   338  0070                     ??_stop:	; 1 bytes @ 0x0
   339  0070                     ?_zajiganiya:	; 1 bytes @ 0x0
   340  0070                     ??_zajiganiya:	; 1 bytes @ 0x0
   341  0070                     ?_magnitafon:	; 1 bytes @ 0x0
   342  0070                     ?_main:	; 1 bytes @ 0x0
   343  0070                     	ds	3
   344  0070                     ??_magnitafon:	; 1 bytes @ 0x3
   345  0073                     	ds	2
   346  0073                     ??_main:	; 1 bytes @ 0x5
   347  0075                     	ds	3
   348  0075                     ;!
   349                           ;!Data Sizes:
   350                           ;!    Strings     0
   351                           ;!    Constant    0
   352                           ;!    Data        0
   353                           ;!    BSS         4
   354                           ;!    Persistent  0
   355                           ;!    Stack       0
   356                           ;!
   357                           ;!Auto Spaces:
   358                           ;!    Space          Size  Autos    Used
   359                           ;!    COMMON           14      8      12
   360                           ;!    BANK0            80      0       0
   361                           ;!    BANK1            80      0       0
   362                           ;!    BANK2            48      0       0
   363                           
   364                           ;!
   365                           ;!Pointer List with Targets:
   366                           ;!
   367                           ;!    None.
   368                           
   369                           
   370                           ;!
   371                           ;!Critical Paths under _main in COMMON
   372                           ;!
   373                           ;!    _main->_magnitafon
   374                           ;!    _magnitafon->_start
   375                           ;!
   376                           ;!Critical Paths under _main in BANK0
   377                           ;!
   378                           ;!    None.
   379                           ;!
   380                           ;!Critical Paths under _main in BANK1
   381                           ;!
   382                           ;!    None.
   383                           ;!
   384                           ;!Critical Paths under _main in BANK2
   385                           ;!
   386                           ;!    None.
   387                           
   388 ;;
   389 ;;Main: autosize = 0, tempsize = 3, incstack = 0, save=0
   390 ;;
   391                           
   392                           ;!
   393                           ;!Call Graph Tables:
   394                           ;!
   395                           ;! ---------------------------------------------------------------------------------
   396                           ;! (Depth) Function   	        Calls       Base Space   Used Autos Params    Refs
   397                           ;! ---------------------------------------------------------------------------------
   398                           ;! (0) _main                                                 3     3      0       0
   399                           ;!                                              5 COMMON     3     3      0
   400                           ;!                            _flicker
   401                           ;!                         _magnitafon
   402                           ;!                             _ohrana
   403                           ;!                        _ohranastart
   404                           ;!                              _start
   405                           ;!                               _stop
   406                           ;!                         _zajiganiya
   407                           ;!                               _zvuk
   408                           ;! ---------------------------------------------------------------------------------
   409                           ;! (1) _zajiganiya                                           2     2      0       0
   410                           ;!                                              0 COMMON     2     2      0
   411                           ;! ---------------------------------------------------------------------------------
   412                           ;! (1) _stop                                                 3     3      0       0
   413                           ;!                                              0 COMMON     3     3      0
   414                           ;! ---------------------------------------------------------------------------------
   415                           ;! (1) _ohrana                                               0     0      0       0
   416                           ;! ---------------------------------------------------------------------------------
   417                           ;! (1) _magnitafon                                           2     2      0       0
   418                           ;!                                              3 COMMON     2     2      0
   419                           ;!                              _start
   420                           ;!                               _zvuk
   421                           ;! ---------------------------------------------------------------------------------
   422                           ;! (1) _zvuk                                                 2     2      0       0
   423                           ;!                                              0 COMMON     2     2      0
   424                           ;! ---------------------------------------------------------------------------------
   425                           ;! (1) _start                                                3     3      0       0
   426                           ;!                                              0 COMMON     3     3      0
   427                           ;! ---------------------------------------------------------------------------------
   428                           ;! (1) _flicker                                              3     3      0       0
   429                           ;!                                              0 COMMON     3     3      0
   430                           ;!                        _ohranastart
   431                           ;! ---------------------------------------------------------------------------------
   432                           ;! (1) _ohranastart                                          0     0      0       0
   433                           ;! ---------------------------------------------------------------------------------
   434                           ;! Estimated maximum stack depth 1
   435                           ;! ---------------------------------------------------------------------------------
   436                           ;!
   437                           ;! Call Graph Graphs:
   438                           ;!
   439                           ;! _main (ROOT)
   440                           ;!   _flicker
   441                           ;!     _ohranastart
   442                           ;!   _magnitafon
   443                           ;!     _start
   444                           ;!     _zvuk
   445                           ;!   _ohrana
   446                           ;!   _ohranastart
   447                           ;!   _start
   448                           ;!   _stop
   449                           ;!   _zajiganiya
   450                           ;!   _zvuk
   451                           ;!
   452                           
   453                           ;! Address spaces:
   454                           
   455                           ;!Name               Size   Autos  Total    Cost      Usage
   456                           ;!BITCOMMON            E      0       0       0        0.0%
   457                           ;!EEDATA              80      0       0       0        0.0%
   458                           ;!NULL                 0      0       0       0        0.0%
   459                           ;!CODE                 0      0       0       0        0.0%
   460                           ;!COMMON               E      8       C       1       85.7%
   461                           ;!BITSFR0              0      0       0       1        0.0%
   462                           ;!SFR0                 0      0       0       1        0.0%
   463                           ;!BITSFR1              0      0       0       2        0.0%
   464                           ;!SFR1                 0      0       0       2        0.0%
   465                           ;!STACK                0      0       0       2        0.0%
   466                           ;!BANK0               50      0       0       3        0.0%
   467                           ;!BITSFR3              0      0       0       4        0.0%
   468                           ;!SFR3                 0      0       0       4        0.0%
   469                           ;!ABS                  0      0       C       4        0.0%
   470                           ;!BITBANK0            50      0       0       5        0.0%
   471                           ;!BITSFR2              0      0       0       5        0.0%
   472                           ;!SFR2                 0      0       0       5        0.0%
   473                           ;!BITBANK1            50      0       0       6        0.0%
   474                           ;!BANK1               50      0       0       7        0.0%
   475                           ;!BITBANK2            30      0       0       8        0.0%
   476                           ;!BANK2               30      0       0       9        0.0%
   477                           ;!DATA                 0      0       C      10        0.0%
   478                           
   479                           	global	_main
   480                           
   481 ;; *************** function _main *****************
   482 ;; Defined at:
   483 ;;		line 124 in file "STARTcobalt10.06.21.c"
   484 ;; Parameters:    Size  Location     Type
   485 ;;		None
   486 ;; Auto vars:     Size  Location     Type
   487 ;;		None
   488 ;; Return value:  Size  Location     Type
   489 ;;                  1    wreg      void 
   490 ;; Registers used:
   491 ;;		wreg, status,2, status,0, pclath, cstack
   492 ;; Tracked objects:
   493 ;;		On entry : B00/0
   494 ;;		On exit  : 0/0
   495 ;;		Unchanged: 0/0
   496 ;; Data sizes:     COMMON   BANK0   BANK1   BANK2
   497 ;;      Params:         0       0       0       0
   498 ;;      Locals:         0       0       0       0
   499 ;;      Temps:          3       0       0       0
   500 ;;      Totals:         3       0       0       0
   501 ;;Total ram usage:        3 bytes
   502 ;; Hardware stack levels required when called:    2
   503 ;; This function calls:
   504 ;;		_flicker
   505 ;;		_magnitafon
   506 ;;		_ohrana
   507 ;;		_ohranastart
   508 ;;		_start
   509 ;;		_stop
   510 ;;		_zajiganiya
   511 ;;		_zvuk
   512 ;; This function is called by:
   513 ;;		Startup code after reset
   514 ;; This function uses a non-reentrant model
   515 ;;
   516                           psect	maintext,global,class=CODE,delta=2,split=1,group=0
   517                           	file	"STARTcobalt10.06.21.c"
   518                           	line	124
   519                           global __pmaintext
   520                           __pmaintext:	;psect for function _main
   521  0628                     psect	maintext
   522                           	file	"STARTcobalt10.06.21.c"
   523                           	line	124
   524                           	global	__size_of_main
   525                           	__size_of_main	equ	__end_of_main-_main
   526  01D2                     	
   527                           _main:	
   528  0628                     ;incstack = 0
   529                           	opt	stack 6
   530                           ; Regs used in _main: [wreg+status,2+status,0+pclath+cstack]
   531                           	line	125
   532                           	
   533                           l780:	
   534  0628                     ;STARTcobalt10.06.21.c: 125:             }
   535                           	movlw	low(06h)
   536  0628  3006               	bsf	status, 5	;RP0=1, select bank1
   537  0629  1683               	bcf	status, 6	;RP1=0, select bank1
   538  062A  1303               	movwf	(133)^080h	;volatile
   539  062B  0085               	line	126
   540                           ;STARTcobalt10.06.21.c: 126:         }
   541                           	movlw	low(07h)
   542  062C  3007               	movwf	(134)^080h	;volatile
   543  062D  0086               	line	127
   544                           	
   545                           l782:	
   546  062E                     ;STARTcobalt10.06.21.c: 127: 
   547                           	bcf	status, 5	;RP0=0, select bank0
   548  062E  1283               	bcf	status, 6	;RP1=0, select bank0
   549  062F  1303               	clrf	(5)	;volatile
   550  0630  0185               	line	128
   551                           	
   552                           l784:	
   553  0631                     ;STARTcobalt10.06.21.c: 128:         PORTAbits.RA7 = 1;
   554                           	clrf	(6)	;volatile
   555  0631  0186               	line	130
   556                           ;STARTcobalt10.06.21.c: 130:             PORTBbits.RB7 = 1;
   557                           	movlw	low(080h)
   558  0632  3080               	bsf	status, 5	;RP0=1, select bank1
   559  0633  1683               	bcf	status, 6	;RP1=0, select bank1
   560  0634  1303               	movwf	(129)^080h	;volatile
   561  0635  0081               	line	131
   562                           ;STARTcobalt10.06.21.c: 131:             if (PORTBbits.RB1 == 1) {
   563                           	movlw	low(07h)
   564  0636  3007               	bcf	status, 5	;RP0=0, select bank0
   565  0637  1283               	bcf	status, 6	;RP1=0, select bank0
   566  0638  1303               	movwf	(31)	;volatile
   567  0639  009F               	line	132
   568                           	
   569                           l786:	
   570  063A                     ;STARTcobalt10.06.21.c: 132:                 ohranastart();
   571                           	bsf	(5),7	;volatile
   572  063A  1785               	goto	l800
   573  063B  2E5B               	line	133
   574                           ;STARTcobalt10.06.21.c: 133:             }
   575                           	
   576                           l69:	
   577  063C                     	line	135
   578                           ;STARTcobalt10.06.21.c: 135:             PORTBbits.RB7 = 0;
   579                           	goto	l800
   580  063C  2E5B               	
   581                           l71:	
   582  063D                     	line	136
   583                           	
   584                           l788:	
   585  063D                     ;STARTcobalt10.06.21.c: 136:         }
   586                           	opt asmopt_push
   587                           opt asmopt_off
   588                           movlw	130
   589  063D  3082               movwf	((??_main+0)+0+1),f
   590  063E  00F6               	movlw	221
   591  063F  30DD               movwf	((??_main+0)+0),f
   592  0640  00F5               	u547:
   593  0641                     decfsz	((??_main+0)+0),f
   594  0641  0BF5               	goto	u547
   595  0642  2E41               	decfsz	((??_main+0)+0+1),f
   596  0643  0BF6               	goto	u547
   597  0644  2E41               	nop2
   598  0645  2E46               opt asmopt_pop
   599                           
   600                           	line	138
   601                           	
   602                           l790:	
   603  0646                     ;STARTcobalt10.06.21.c: 138:         while (PORTBbits.RB1 == 1) {
   604                           	bcf	status, 5	;RP0=0, select bank0
   605  0646  1283               	bcf	status, 6	;RP1=0, select bank0
   606  0647  1303               	btfsc	(5),2	;volatile
   607  0648  1905               	goto	u101
   608  0649  2E4B               	goto	u100
   609  064A  2E4C               u101:
   610  064B                     	goto	l794
   611  064B  2E4E               u100:
   612  064C                     	line	139
   613                           	
   614                           l792:	
   615  064C                     ;STARTcobalt10.06.21.c: 139:             if (PORTBbits.RB1 == 1 && PORTAbits.RA1 == 1 &&
                                  PORTBbits.RB0 == 0) {
   616                           	fcall	_ohrana
   617  064C  2501               	goto	l794
   618  064D  2E4E               	line	140
   619                           ;STARTcobalt10.06.21.c: 140:                 _delay((unsigned long)((100)*(4000000/4000.
                                 0)));
   620                           	
   621                           l72:	
   622  064E                     	line	141
   623                           	
   624                           l794:	
   625  064E                     ;STARTcobalt10.06.21.c: 141:                 if (PORTBbits.RB1 == 1 && PORTAbits.RA1 == 
                                 1) {
   626                           	bcf	status, 5	;RP0=0, select bank0
   627  064E  1283               	bcf	status, 6	;RP1=0, select bank0
   628  064F  1303               	btfsc	(5),2	;volatile
   629  0650  1905               	goto	u111
   630  0651  2E53               	goto	u110
   631  0652  2E54               u111:
   632  0653                     	goto	l800
   633  0653  2E5B               u110:
   634  0654                     	
   635                           l796:	
   636  0654                     	btfss	(6),0	;volatile
   637  0654  1C06               	goto	u121
   638  0655  2E57               	goto	u120
   639  0656  2E58               u121:
   640  0657                     	goto	l800
   641  0657  2E5B               u120:
   642  0658                     	line	142
   643                           	
   644                           l798:	
   645  0658                     ;STARTcobalt10.06.21.c: 142:                     if (PORTBbits.RB2 == 1) {
   646                           	fcall	_flicker
   647  0658  2571               	goto	l800
   648  0659  2E5B               	line	143
   649                           ;STARTcobalt10.06.21.c: 143:                         zvuk();
   650                           	
   651                           l73:	
   652  065A                     	goto	l800
   653  065A  2E5B               	line	144
   654                           ;STARTcobalt10.06.21.c: 144:                         _delay((unsigned long)((60)*(400000
                                 0/4000.0)));
   655                           	
   656                           l70:	
   657  065B                     	line	135
   658                           	
   659                           l800:	
   660  065B                     ;STARTcobalt10.06.21.c: 135:             PORTBbits.RB7 = 0;
   661                           	bcf	status, 5	;RP0=0, select bank0
   662  065B  1283               	bcf	status, 6	;RP1=0, select bank0
   663  065C  1303               	btfss	(5),2	;volatile
   664  065D  1D05               	goto	u131
   665  065E  2E60               	goto	u130
   666  065F  2E61               u131:
   667  0660                     	goto	l788
   668  0660  2E3D               u130:
   669  0661                     	
   670                           l74:	
   671  0661                     	line	146
   672                           ;STARTcobalt10.06.21.c: 146:                     } else {
   673                           	bsf	(5),7	;volatile
   674  0661  1785               	line	147
   675                           ;STARTcobalt10.06.21.c: 147:                         zvuk();
   676                           	btfss	(6),0	;volatile
   677  0662  1C06               	goto	u141
   678  0663  2E65               	goto	u140
   679  0664  2E66               u141:
   680  0665                     	goto	l75
   681  0665  2E6E               u140:
   682  0666                     	line	148
   683                           	
   684                           l802:	
   685  0666                     ;STARTcobalt10.06.21.c: 148:                         start();
   686                           	bsf	(6),7	;volatile
   687  0666  1786               	line	149
   688                           ;STARTcobalt10.06.21.c: 149:                     }
   689                           	btfss	(6),1	;volatile
   690  0667  1C86               	goto	u151
   691  0668  2E6A               	goto	u150
   692  0669  2E6B               u151:
   693  066A                     	goto	l78
   694  066A  2ED1               u150:
   695  066B                     	line	150
   696                           	
   697                           l804:	
   698  066B                     ;STARTcobalt10.06.21.c: 150:                 }
   699                           	fcall	_ohranastart
   700  066B  2508               	goto	l78
   701  066C  2ED1               	line	151
   702                           ;STARTcobalt10.06.21.c: 151:             }
   703                           	
   704                           l76:	
   705  066D                     	line	152
   706                           ;STARTcobalt10.06.21.c: 152: 
   707                           	goto	l78
   708  066D  2ED1               	
   709                           l75:	
   710  066E                     	line	153
   711                           ;STARTcobalt10.06.21.c: 153:             if (PORTBbits.RB1 == 1 && PORTAbits.RA1 == 1 &&
                                  PORTBbits.RB0 == 1) {
   712                           	bcf	(6),7	;volatile
   713  066E  1386               	goto	l78
   714  066F  2ED1               	line	154
   715                           ;STARTcobalt10.06.21.c: 154:                 _delay((unsigned long)((100)*(4000000/4000.
                                 0)));
   716                           	
   717                           l77:	
   718  0670                     	line	156
   719                           ;STARTcobalt10.06.21.c: 156:                     stop();
   720                           	goto	l78
   721  0670  2ED1               	
   722                           l79:	
   723  0671                     	line	157
   724                           ;STARTcobalt10.06.21.c: 157:                 }
   725                           	btfss	(6),1	;volatile
   726  0671  1C86               	goto	u161
   727  0672  2E74               	goto	u160
   728  0673  2E75               u161:
   729  0674                     	goto	l826
   730  0674  2EA4               u160:
   731  0675                     	
   732                           l806:	
   733  0675                     	btfss	(5),1	;volatile
   734  0675  1C85               	goto	u171
   735  0676  2E78               	goto	u170
   736  0677  2E79               u171:
   737  0678                     	goto	l826
   738  0678  2EA4               u170:
   739  0679                     	
   740                           l808:	
   741  0679                     	btfsc	(6),0	;volatile
   742  0679  1806               	goto	u181
   743  067A  2E7C               	goto	u180
   744  067B  2E7D               u181:
   745  067C                     	goto	l826
   746  067C  2EA4               u180:
   747  067D                     	line	158
   748                           	
   749                           l810:	
   750  067D                     ;STARTcobalt10.06.21.c: 158:             }
   751                           	opt asmopt_push
   752                           opt asmopt_off
   753                           movlw	130
   754  067D  3082               movwf	((??_main+0)+0+1),f
   755  067E  00F6               	movlw	221
   756  067F  30DD               movwf	((??_main+0)+0),f
   757  0680  00F5               	u557:
   758  0681                     decfsz	((??_main+0)+0),f
   759  0681  0BF5               	goto	u557
   760  0682  2E81               	decfsz	((??_main+0)+0+1),f
   761  0683  0BF6               	goto	u557
   762  0684  2E81               	nop2
   763  0685  2E86               opt asmopt_pop
   764                           
   765                           	line	159
   766                           	
   767                           l812:	
   768  0686                     ;STARTcobalt10.06.21.c: 159:             if (PORTBbits.RB0 == 1) {
   769                           	bcf	status, 5	;RP0=0, select bank0
   770  0686  1283               	bcf	status, 6	;RP1=0, select bank0
   771  0687  1303               	btfss	(6),1	;volatile
   772  0688  1C86               	goto	u191
   773  0689  2E8B               	goto	u190
   774  068A  2E8C               u191:
   775  068B                     	goto	l826
   776  068B  2EA4               u190:
   777  068C                     	
   778                           l814:	
   779  068C                     	btfss	(5),1	;volatile
   780  068C  1C85               	goto	u201
   781  068D  2E8F               	goto	u200
   782  068E  2E90               u201:
   783  068F                     	goto	l826
   784  068F  2EA4               u200:
   785  0690                     	line	160
   786                           	
   787                           l816:	
   788  0690                     ;STARTcobalt10.06.21.c: 160:                 PORTBbits.RB7 = 1;
   789                           	btfss	(6),2	;volatile
   790  0690  1D06               	goto	u211
   791  0691  2E93               	goto	u210
   792  0692  2E94               u211:
   793  0693                     	goto	l824
   794  0693  2E9F               u210:
   795  0694                     	line	161
   796                           	
   797                           l818:	
   798  0694                     ;STARTcobalt10.06.21.c: 161:             } else {
   799                           	fcall	_zvuk
   800  0694  2510               	line	162
   801                           	
   802                           l820:	
   803  0695                     ;STARTcobalt10.06.21.c: 162: 
   804                           	opt asmopt_push
   805                           opt asmopt_off
   806                           movlw	78
   807  0695  304E               movwf	((??_main+0)+0+1),f
   808  0696  00F6               	movlw	235
   809  0697  30EB               movwf	((??_main+0)+0),f
   810  0698  00F5               	u567:
   811  0699                     decfsz	((??_main+0)+0),f
   812  0699  0BF5               	goto	u567
   813  069A  2E99               	decfsz	((??_main+0)+0+1),f
   814  069B  0BF6               	goto	u567
   815  069C  2E99               opt asmopt_pop
   816                           
   817                           	line	163
   818                           	
   819                           l822:	
   820  069D                     ;STARTcobalt10.06.21.c: 163:             }
   821                           	fcall	_zvuk
   822  069D  2510               	line	164
   823                           ;STARTcobalt10.06.21.c: 164:         }
   824                           	goto	l826
   825  069E  2EA4               	
   826                           l82:	
   827  069F                     	line	165
   828                           	
   829                           l824:	
   830  069F                     ;STARTcobalt10.06.21.c: 165: 
   831                           	fcall	_zvuk
   832  069F  2510               	line	166
   833                           ;STARTcobalt10.06.21.c: 166:         while (PORTAbits.RA1 == 1) {
   834                           	fcall	_start
   835  06A0  25A2               	goto	l826
   836  06A1  2EA4               	line	167
   837                           ;STARTcobalt10.06.21.c: 167:             _delay((unsigned long)((100)*(4000000/4000.0)))
                                 ;
   838                           	
   839                           l83:	
   840  06A2                     	goto	l826
   841  06A2  2EA4               	line	168
   842                           ;STARTcobalt10.06.21.c: 168:             if (status == 0 && PORTBbits.RB1 == 0 && PORTBb
                                 its.RB0 == 0) {
   843                           	
   844                           l81:	
   845  06A3                     	goto	l826
   846  06A3  2EA4               	line	169
   847                           ;STARTcobalt10.06.21.c: 169:                 _delay((unsigned long)((200)*(4000000/4000.
                                 0)));
   848                           	
   849                           l80:	
   850  06A4                     	line	171
   851                           	
   852                           l826:	
   853  06A4                     ;STARTcobalt10.06.21.c: 171:                     _delay((unsigned long)((400)*(4000000/4
                                 000.0)));
   854                           	bcf	status, 5	;RP0=0, select bank0
   855  06A4  1283               	bcf	status, 6	;RP1=0, select bank0
   856  06A5  1303               	btfss	(6),1	;volatile
   857  06A6  1C86               	goto	u221
   858  06A7  2EA9               	goto	u220
   859  06A8  2EAA               u221:
   860  06A9                     	goto	l840
   861  06A9  2EC8               u220:
   862  06AA                     	
   863                           l828:	
   864  06AA                     	btfss	(5),1	;volatile
   865  06AA  1C85               	goto	u231
   866  06AB  2EAD               	goto	u230
   867  06AC  2EAE               u231:
   868  06AD                     	goto	l840
   869  06AD  2EC8               u230:
   870  06AE                     	
   871                           l830:	
   872  06AE                     	btfss	(6),0	;volatile
   873  06AE  1C06               	goto	u241
   874  06AF  2EB1               	goto	u240
   875  06B0  2EB2               u241:
   876  06B1                     	goto	l840
   877  06B1  2EC8               u240:
   878  06B2                     	line	172
   879                           	
   880                           l832:	
   881  06B2                     ;STARTcobalt10.06.21.c: 172:                 }
   882                           	opt asmopt_push
   883                           opt asmopt_off
   884                           movlw	130
   885  06B2  3082               movwf	((??_main+0)+0+1),f
   886  06B3  00F6               	movlw	221
   887  06B4  30DD               movwf	((??_main+0)+0),f
   888  06B5  00F5               	u577:
   889  06B6                     decfsz	((??_main+0)+0),f
   890  06B6  0BF5               	goto	u577
   891  06B7  2EB6               	decfsz	((??_main+0)+0+1),f
   892  06B8  0BF6               	goto	u577
   893  06B9  2EB6               	nop2
   894  06BA  2EBB               opt asmopt_pop
   895                           
   896                           	line	173
   897                           	
   898                           l834:	
   899  06BB                     ;STARTcobalt10.06.21.c: 173:                 if (PORTAbits.RA1 == 0) {
   900                           	bcf	status, 5	;RP0=0, select bank0
   901  06BB  1283               	bcf	status, 6	;RP1=0, select bank0
   902  06BC  1303               	btfss	(6),1	;volatile
   903  06BD  1C86               	goto	u251
   904  06BE  2EC0               	goto	u250
   905  06BF  2EC1               u251:
   906  06C0                     	goto	l840
   907  06C0  2EC8               u250:
   908  06C1                     	
   909                           l836:	
   910  06C1                     	btfss	(5),1	;volatile
   911  06C1  1C85               	goto	u261
   912  06C2  2EC4               	goto	u260
   913  06C3  2EC5               u261:
   914  06C4                     	goto	l840
   915  06C4  2EC8               u260:
   916  06C5                     	line	174
   917                           	
   918                           l838:	
   919  06C5                     ;STARTcobalt10.06.21.c: 174:                     magnitafon();
   920                           	fcall	_stop
   921  06C5  2531               	goto	l840
   922  06C6  2EC8               	line	175
   923                           ;STARTcobalt10.06.21.c: 175:                 }
   924                           	
   925                           l85:	
   926  06C7                     	goto	l840
   927  06C7  2EC8               	line	176
   928                           ;STARTcobalt10.06.21.c: 176:             } else if (status == 1 && PORTBbits.RB1 == 0 &&
                                  PORTBbits.RB0 == 0) {
   929                           	
   930                           l84:	
   931  06C8                     	line	177
   932                           	
   933                           l840:	
   934  06C8                     ;STARTcobalt10.06.21.c: 177:                 _delay((unsigned long)((200)*(4000000/4000.
                                 0)));
   935                           	bcf	status, 5	;RP0=0, select bank0
   936  06C8  1283               	bcf	status, 6	;RP1=0, select bank0
   937  06C9  1303               	btfss	(6),0	;volatile
   938  06CA  1C06               	goto	u271
   939  06CB  2ECD               	goto	u270
   940  06CC  2ECE               u271:
   941  06CD                     	goto	l78
   942  06CD  2ED1               u270:
   943  06CE                     	line	178
   944                           	
   945                           l842:	
   946  06CE                     ;STARTcobalt10.06.21.c: 178:                 if (PORTAbits.RA1 == 1) {
   947                           	bsf	(6),7	;volatile
   948  06CE  1786               	line	179
   949                           ;STARTcobalt10.06.21.c: 179:                     _delay((unsigned long)((400)*(4000000/4
                                 000.0)));
   950                           	goto	l78
   951  06CF  2ED1               	
   952                           l86:	
   953  06D0                     	goto	l78
   954  06D0  2ED1               	line	181
   955                           ;STARTcobalt10.06.21.c: 181:                 if (PORTAbits.RA1 == 0) {
   956                           	
   957                           l87:	
   958  06D1                     	line	182
   959                           ;STARTcobalt10.06.21.c: 182:                     zajiganiya();
   960                           	
   961                           l78:	
   962  06D1                     	line	156
   963                           ;STARTcobalt10.06.21.c: 156:                     stop();
   964                           	bcf	status, 5	;RP0=0, select bank0
   965  06D1  1283               	bcf	status, 6	;RP1=0, select bank0
   966  06D2  1303               	btfsc	(6),1	;volatile
   967  06D3  1886               	goto	u281
   968  06D4  2ED6               	goto	u280
   969  06D5  2ED7               u281:
   970  06D6                     	goto	l79
   971  06D6  2E71               u280:
   972  06D7                     	goto	l89
   973  06D7  2FF2               	
   974                           l88:	
   975  06D8                     	line	184
   976                           ;STARTcobalt10.06.21.c: 184:             } else if (status == 2 && PORTBbits.RB1 == 0 &&
                                  PORTBbits.RB0 == 0) {
   977                           	goto	l89
   978  06D8  2FF2               	
   979                           l90:	
   980  06D9                     	line	185
   981                           	
   982                           l844:	
   983  06D9                     ;STARTcobalt10.06.21.c: 185:                 _delay((unsigned long)((200)*(4000000/4000.
                                 0)));
   984                           	opt asmopt_push
   985                           opt asmopt_off
   986                           movlw	130
   987  06D9  3082               movwf	((??_main+0)+0+1),f
   988  06DA  00F6               	movlw	221
   989  06DB  30DD               movwf	((??_main+0)+0),f
   990  06DC  00F5               	u587:
   991  06DD                     decfsz	((??_main+0)+0),f
   992  06DD  0BF5               	goto	u587
   993  06DE  2EDD               	decfsz	((??_main+0)+0+1),f
   994  06DF  0BF6               	goto	u587
   995  06E0  2EDD               	nop2
   996  06E1  2EE2               opt asmopt_pop
   997                           
   998                           	line	186
   999                           	
  1000                           l846:	
  1001  06E2                     ;STARTcobalt10.06.21.c: 186:                 if (PORTAbits.RA1 == 1) {
  1002                           	movf	((_status)),w
  1003  06E2  0879               	btfss	status,2
  1004  06E3  1D03               	goto	u291
  1005  06E4  2EE6               	goto	u290
  1006  06E5  2EE7               u291:
  1007  06E6                     	goto	l862
  1008  06E6  2F1A               u290:
  1009  06E7                     	
  1010                           l848:	
  1011  06E7                     	bcf	status, 5	;RP0=0, select bank0
  1012  06E7  1283               	bcf	status, 6	;RP1=0, select bank0
  1013  06E8  1303               	btfsc	(6),1	;volatile
  1014  06E9  1886               	goto	u301
  1015  06EA  2EEC               	goto	u300
  1016  06EB  2EED               u301:
  1017  06EC                     	goto	l862
  1018  06EC  2F1A               u300:
  1019  06ED                     	
  1020                           l850:	
  1021  06ED                     	btfsc	(6),0	;volatile
  1022  06ED  1806               	goto	u311
  1023  06EE  2EF0               	goto	u310
  1024  06EF  2EF1               u311:
  1025  06F0                     	goto	l862
  1026  06F0  2F1A               u310:
  1027  06F1                     	line	187
  1028                           	
  1029                           l852:	
  1030  06F1                     ;STARTcobalt10.06.21.c: 187:                     _delay((unsigned long)((400)*(4000000/4
                                 000.0)));
  1031                           	opt asmopt_push
  1032                           opt asmopt_off
  1033                           movlw  2
  1034  06F1  3002               movwf	((??_main+0)+0+2),f
  1035  06F2  00F7               movlw	4
  1036  06F3  3004               movwf	((??_main+0)+0+1),f
  1037  06F4  00F6               	movlw	186
  1038  06F5  30BA               movwf	((??_main+0)+0),f
  1039  06F6  00F5               	u597:
  1040  06F7                     decfsz	((??_main+0)+0),f
  1041  06F7  0BF5               	goto	u597
  1042  06F8  2EF7               	decfsz	((??_main+0)+0+1),f
  1043  06F9  0BF6               	goto	u597
  1044  06FA  2EF7               	decfsz	((??_main+0)+0+2),f
  1045  06FB  0BF7               	goto	u597
  1046  06FC  2EF7               	nop
  1047  06FD  0000               opt asmopt_pop
  1048                           
  1049                           	line	188
  1050                           	
  1051                           l854:	
  1052  06FE                     ;STARTcobalt10.06.21.c: 188:                 }
  1053                           	bcf	status, 5	;RP0=0, select bank0
  1054  06FE  1283               	bcf	status, 6	;RP1=0, select bank0
  1055  06FF  1303               	btfss	(5),1	;volatile
  1056  0700  1C85               	goto	u321
  1057  0701  2F03               	goto	u320
  1058  0702  2F04               u321:
  1059  0703                     	goto	l858
  1060  0703  2F11               u320:
  1061  0704                     	line	189
  1062                           	
  1063                           l856:	
  1064  0704                     ;STARTcobalt10.06.21.c: 189:                 if (PORTAbits.RA1 == 0) {
  1065                           	opt asmopt_push
  1066                           opt asmopt_off
  1067                           movlw  3
  1068  0704  3003               movwf	((??_main+0)+0+2),f
  1069  0705  00F7               movlw	8
  1070  0706  3008               movwf	((??_main+0)+0+1),f
  1071  0707  00F6               	movlw	119
  1072  0708  3077               movwf	((??_main+0)+0),f
  1073  0709  00F5               	u607:
  1074  070A                     decfsz	((??_main+0)+0),f
  1075  070A  0BF5               	goto	u607
  1076  070B  2F0A               	decfsz	((??_main+0)+0+1),f
  1077  070C  0BF6               	goto	u607
  1078  070D  2F0A               	decfsz	((??_main+0)+0+2),f
  1079  070E  0BF7               	goto	u607
  1080  070F  2F0A               opt asmopt_pop
  1081                           
  1082                           	goto	l858
  1083  0710  2F11               	line	190
  1084                           ;STARTcobalt10.06.21.c: 190:                     PORTA = 0b10000000;
  1085                           	
  1086                           l92:	
  1087  0711                     	line	191
  1088                           	
  1089                           l858:	
  1090  0711                     ;STARTcobalt10.06.21.c: 191:                     PORTB = 0b00000000;
  1091                           	bcf	status, 5	;RP0=0, select bank0
  1092  0711  1283               	bcf	status, 6	;RP1=0, select bank0
  1093  0712  1303               	btfsc	(5),1	;volatile
  1094  0713  1885               	goto	u331
  1095  0714  2F16               	goto	u330
  1096  0715  2F17               u331:
  1097  0716                     	goto	l898
  1098  0716  2F99               u330:
  1099  0717                     	line	192
  1100                           	
  1101                           l860:	
  1102  0717                     ;STARTcobalt10.06.21.c: 192:                     status = 0;
  1103                           	fcall	_magnitafon
  1104  0717  2547               	goto	l898
  1105  0718  2F99               	line	193
  1106                           ;STARTcobalt10.06.21.c: 193:                     _delay((unsigned long)((100)*(4000000/4
                                 000.0)));
  1107                           	
  1108                           l93:	
  1109  0719                     	line	194
  1110                           ;STARTcobalt10.06.21.c: 194:                 }
  1111                           	goto	l898
  1112  0719  2F99               	
  1113                           l91:	
  1114  071A                     	
  1115                           l862:	
  1116  071A                     		decf	((_status)),w
  1117  071A  0379               	btfss	status,2
  1118  071B  1D03               	goto	u341
  1119  071C  2F1E               	goto	u340
  1120  071D  2F1F               u341:
  1121  071E                     	goto	l878
  1122  071E  2F52               u340:
  1123  071F                     	
  1124                           l864:	
  1125  071F                     	bcf	status, 5	;RP0=0, select bank0
  1126  071F  1283               	bcf	status, 6	;RP1=0, select bank0
  1127  0720  1303               	btfsc	(6),1	;volatile
  1128  0721  1886               	goto	u351
  1129  0722  2F24               	goto	u350
  1130  0723  2F25               u351:
  1131  0724                     	goto	l878
  1132  0724  2F52               u350:
  1133  0725                     	
  1134                           l866:	
  1135  0725                     	btfsc	(6),0	;volatile
  1136  0725  1806               	goto	u361
  1137  0726  2F28               	goto	u360
  1138  0727  2F29               u361:
  1139  0728                     	goto	l878
  1140  0728  2F52               u360:
  1141  0729                     	line	195
  1142                           	
  1143                           l868:	
  1144  0729                     ;STARTcobalt10.06.21.c: 195:             }
  1145                           	opt asmopt_push
  1146                           opt asmopt_off
  1147                           movlw  2
  1148  0729  3002               movwf	((??_main+0)+0+2),f
  1149  072A  00F7               movlw	4
  1150  072B  3004               movwf	((??_main+0)+0+1),f
  1151  072C  00F6               	movlw	186
  1152  072D  30BA               movwf	((??_main+0)+0),f
  1153  072E  00F5               	u617:
  1154  072F                     decfsz	((??_main+0)+0),f
  1155  072F  0BF5               	goto	u617
  1156  0730  2F2F               	decfsz	((??_main+0)+0+1),f
  1157  0731  0BF6               	goto	u617
  1158  0732  2F2F               	decfsz	((??_main+0)+0+2),f
  1159  0733  0BF7               	goto	u617
  1160  0734  2F2F               	nop
  1161  0735  0000               opt asmopt_pop
  1162                           
  1163                           	line	196
  1164                           	
  1165                           l870:	
  1166  0736                     ;STARTcobalt10.06.21.c: 196: 
  1167                           	bcf	status, 5	;RP0=0, select bank0
  1168  0736  1283               	bcf	status, 6	;RP1=0, select bank0
  1169  0737  1303               	btfss	(5),1	;volatile
  1170  0738  1C85               	goto	u371
  1171  0739  2F3B               	goto	u370
  1172  073A  2F3C               u371:
  1173  073B                     	goto	l874
  1174  073B  2F49               u370:
  1175  073C                     	line	197
  1176                           	
  1177                           l872:	
  1178  073C                     ;STARTcobalt10.06.21.c: 197:             if (PORTAbits.RA1 == 1) {
  1179                           	opt asmopt_push
  1180                           opt asmopt_off
  1181                           movlw  3
  1182  073C  3003               movwf	((??_main+0)+0+2),f
  1183  073D  00F7               movlw	8
  1184  073E  3008               movwf	((??_main+0)+0+1),f
  1185  073F  00F6               	movlw	119
  1186  0740  3077               movwf	((??_main+0)+0),f
  1187  0741  00F5               	u627:
  1188  0742                     decfsz	((??_main+0)+0),f
  1189  0742  0BF5               	goto	u627
  1190  0743  2F42               	decfsz	((??_main+0)+0+1),f
  1191  0744  0BF6               	goto	u627
  1192  0745  2F42               	decfsz	((??_main+0)+0+2),f
  1193  0746  0BF7               	goto	u627
  1194  0747  2F42               opt asmopt_pop
  1195                           
  1196                           	goto	l874
  1197  0748  2F49               	line	198
  1198                           ;STARTcobalt10.06.21.c: 198:                 while (PORTAbits.RA1 == 1) {
  1199                           	
  1200                           l96:	
  1201  0749                     	line	199
  1202                           	
  1203                           l874:	
  1204  0749                     ;STARTcobalt10.06.21.c: 199:                     _delay((unsigned long)((250)*(4000000/4
                                 000.0)));
  1205                           	bcf	status, 5	;RP0=0, select bank0
  1206  0749  1283               	bcf	status, 6	;RP1=0, select bank0
  1207  074A  1303               	btfsc	(5),1	;volatile
  1208  074B  1885               	goto	u381
  1209  074C  2F4E               	goto	u380
  1210  074D  2F4F               u381:
  1211  074E                     	goto	l898
  1212  074E  2F99               u380:
  1213  074F                     	line	200
  1214                           	
  1215                           l876:	
  1216  074F                     ;STARTcobalt10.06.21.c: 200:                     u++;
  1217                           	fcall	_zajiganiya
  1218  074F  251F               	goto	l898
  1219  0750  2F99               	line	201
  1220                           ;STARTcobalt10.06.21.c: 201:                     if (u >= 20 && PORTBbits.RB0 == 0 && PO
                                 RTAbits.RA1 == 0) {
  1221                           	
  1222                           l97:	
  1223  0751                     	line	202
  1224                           ;STARTcobalt10.06.21.c: 202:                         u = 0;
  1225                           	goto	l898
  1226  0751  2F99               	
  1227                           l95:	
  1228  0752                     	
  1229                           l878:	
  1230  0752                     		movlw	2
  1231  0752  3002               	xorwf	((_status)),w
  1232  0753  0679               	btfss	status,2
  1233  0754  1D03               	goto	u391
  1234  0755  2F57               	goto	u390
  1235  0756  2F58               u391:
  1236  0757                     	goto	l898
  1237  0757  2F99               u390:
  1238  0758                     	
  1239                           l880:	
  1240  0758                     	bcf	status, 5	;RP0=0, select bank0
  1241  0758  1283               	bcf	status, 6	;RP1=0, select bank0
  1242  0759  1303               	btfsc	(6),1	;volatile
  1243  075A  1886               	goto	u401
  1244  075B  2F5D               	goto	u400
  1245  075C  2F5E               u401:
  1246  075D                     	goto	l898
  1247  075D  2F99               u400:
  1248  075E                     	
  1249                           l882:	
  1250  075E                     	btfsc	(6),0	;volatile
  1251  075E  1806               	goto	u411
  1252  075F  2F61               	goto	u410
  1253  0760  2F62               u411:
  1254  0761                     	goto	l898
  1255  0761  2F99               u410:
  1256  0762                     	line	203
  1257                           	
  1258                           l884:	
  1259  0762                     ;STARTcobalt10.06.21.c: 203:                         if (PORTBbits.RB2 == 1) {
  1260                           	opt asmopt_push
  1261                           opt asmopt_off
  1262                           movlw  2
  1263  0762  3002               movwf	((??_main+0)+0+2),f
  1264  0763  00F7               movlw	4
  1265  0764  3004               movwf	((??_main+0)+0+1),f
  1266  0765  00F6               	movlw	186
  1267  0766  30BA               movwf	((??_main+0)+0),f
  1268  0767  00F5               	u637:
  1269  0768                     decfsz	((??_main+0)+0),f
  1270  0768  0BF5               	goto	u637
  1271  0769  2F68               	decfsz	((??_main+0)+0+1),f
  1272  076A  0BF6               	goto	u637
  1273  076B  2F68               	decfsz	((??_main+0)+0+2),f
  1274  076C  0BF7               	goto	u637
  1275  076D  2F68               	nop
  1276  076E  0000               opt asmopt_pop
  1277                           
  1278                           	line	204
  1279                           	
  1280                           l886:	
  1281  076F                     ;STARTcobalt10.06.21.c: 204:                             zvuk();
  1282                           	bcf	status, 5	;RP0=0, select bank0
  1283  076F  1283               	bcf	status, 6	;RP1=0, select bank0
  1284  0770  1303               	btfss	(5),1	;volatile
  1285  0771  1C85               	goto	u421
  1286  0772  2F74               	goto	u420
  1287  0773  2F75               u421:
  1288  0774                     	goto	l890
  1289  0774  2F82               u420:
  1290  0775                     	line	205
  1291                           	
  1292                           l888:	
  1293  0775                     ;STARTcobalt10.06.21.c: 205:                             _delay((unsigned long)((60)*(40
                                 00000/4000.0)));
  1294                           	opt asmopt_push
  1295                           opt asmopt_off
  1296                           movlw  3
  1297  0775  3003               movwf	((??_main+0)+0+2),f
  1298  0776  00F7               movlw	8
  1299  0777  3008               movwf	((??_main+0)+0+1),f
  1300  0778  00F6               	movlw	119
  1301  0779  3077               movwf	((??_main+0)+0),f
  1302  077A  00F5               	u647:
  1303  077B                     decfsz	((??_main+0)+0),f
  1304  077B  0BF5               	goto	u647
  1305  077C  2F7B               	decfsz	((??_main+0)+0+1),f
  1306  077D  0BF6               	goto	u647
  1307  077E  2F7B               	decfsz	((??_main+0)+0+2),f
  1308  077F  0BF7               	goto	u647
  1309  0780  2F7B               opt asmopt_pop
  1310                           
  1311                           	goto	l890
  1312  0781  2F82               	line	206
  1313                           ;STARTcobalt10.06.21.c: 206:                             zvuk();
  1314                           	
  1315                           l100:	
  1316  0782                     	line	207
  1317                           	
  1318                           l890:	
  1319  0782                     ;STARTcobalt10.06.21.c: 207:                         } else {
  1320                           	bcf	status, 5	;RP0=0, select bank0
  1321  0782  1283               	bcf	status, 6	;RP1=0, select bank0
  1322  0783  1303               	btfsc	(5),1	;volatile
  1323  0784  1885               	goto	u431
  1324  0785  2F87               	goto	u430
  1325  0786  2F88               u431:
  1326  0787                     	goto	l898
  1327  0787  2F99               u430:
  1328  0788                     	line	208
  1329                           	
  1330                           l892:	
  1331  0788                     ;STARTcobalt10.06.21.c: 208:                             zvuk();
  1332                           	movlw	low(080h)
  1333  0788  3080               	movwf	(5)	;volatile
  1334  0789  0085               	line	209
  1335                           	
  1336                           l894:	
  1337  078A                     ;STARTcobalt10.06.21.c: 209:                             start();
  1338                           	clrf	(6)	;volatile
  1339  078A  0186               	line	210
  1340                           	
  1341                           l896:	
  1342  078B                     ;STARTcobalt10.06.21.c: 210:                         }
  1343                           	clrf	(_status)
  1344  078B  01F9               	line	211
  1345                           ;STARTcobalt10.06.21.c: 211:                     }
  1346                           	opt asmopt_push
  1347                           opt asmopt_off
  1348                           movlw	130
  1349  078C  3082               movwf	((??_main+0)+0+1),f
  1350  078D  00F6               	movlw	221
  1351  078E  30DD               movwf	((??_main+0)+0),f
  1352  078F  00F5               	u657:
  1353  0790                     decfsz	((??_main+0)+0),f
  1354  0790  0BF5               	goto	u657
  1355  0791  2F90               	decfsz	((??_main+0)+0+1),f
  1356  0792  0BF6               	goto	u657
  1357  0793  2F90               	nop2
  1358  0794  2F95               opt asmopt_pop
  1359                           
  1360                           	goto	l898
  1361  0795  2F99               	line	212
  1362                           ;STARTcobalt10.06.21.c: 212:                     if (u >= 20 && PORTBbits.RB0 == 1 && PO
                                 RTAbits.RA1 == 0) {
  1363                           	
  1364                           l101:	
  1365  0796                     	goto	l898
  1366  0796  2F99               	line	213
  1367                           ;STARTcobalt10.06.21.c: 213:                         u = 0;
  1368                           	
  1369                           l99:	
  1370  0797                     	goto	l898
  1371  0797  2F99               	
  1372                           l98:	
  1373  0798                     	goto	l898
  1374  0798  2F99               	
  1375                           l94:	
  1376  0799                     	line	215
  1377                           	
  1378                           l898:	
  1379  0799                     ;STARTcobalt10.06.21.c: 215:                     }
  1380                           	bcf	status, 5	;RP0=0, select bank0
  1381  0799  1283               	bcf	status, 6	;RP1=0, select bank0
  1382  079A  1303               	btfss	(5),1	;volatile
  1383  079B  1C85               	goto	u441
  1384  079C  2F9E               	goto	u440
  1385  079D  2F9F               u441:
  1386  079E                     	goto	l89
  1387  079E  2FF2               u440:
  1388  079F                     	goto	l934
  1389  079F  2FEA               	line	216
  1390                           	
  1391                           l900:	
  1392  07A0                     ;STARTcobalt10.06.21.c: 216:                 }
  1393                           	goto	l934
  1394  07A0  2FEA               	
  1395                           l104:	
  1396  07A1                     	line	217
  1397                           	
  1398                           l902:	
  1399  07A1                     ;STARTcobalt10.06.21.c: 217: 
  1400                           	opt asmopt_push
  1401                           opt asmopt_off
  1402                           movlw  2
  1403  07A1  3002               movwf	((??_main+0)+0+2),f
  1404  07A2  00F7               movlw	69
  1405  07A3  3045               movwf	((??_main+0)+0+1),f
  1406  07A4  00F6               	movlw	169
  1407  07A5  30A9               movwf	((??_main+0)+0),f
  1408  07A6  00F5               	u667:
  1409  07A7                     decfsz	((??_main+0)+0),f
  1410  07A7  0BF5               	goto	u667
  1411  07A8  2FA7               	decfsz	((??_main+0)+0+1),f
  1412  07A9  0BF6               	goto	u667
  1413  07AA  2FA7               	decfsz	((??_main+0)+0+2),f
  1414  07AB  0BF7               	goto	u667
  1415  07AC  2FA7               	nop2
  1416  07AD  2FAE               opt asmopt_pop
  1417                           
  1418                           	line	218
  1419                           	
  1420                           l904:	
  1421  07AE                     ;STARTcobalt10.06.21.c: 218:             }
  1422                           	movlw	low(01h)
  1423  07AE  3001               	movwf	(??_main+0)+0
  1424  07AF  00F5               	movf	(??_main+0)+0,w
  1425  07B0  0875               	addwf	(_u),f
  1426  07B1  07FA               	line	219
  1427                           	
  1428                           l906:	
  1429  07B2                     ;STARTcobalt10.06.21.c: 219:         }
  1430                           	movlw	low(014h)
  1431  07B2  3014               	subwf	(_u),w
  1432  07B3  027A               	skipc
  1433  07B4  1C03               	goto	u451
  1434  07B5  2FB7               	goto	u450
  1435  07B6  2FB8               u451:
  1436  07B7                     	goto	l924
  1437  07B7  2FD6               u450:
  1438  07B8                     	
  1439                           l908:	
  1440  07B8                     	bcf	status, 5	;RP0=0, select bank0
  1441  07B8  1283               	bcf	status, 6	;RP1=0, select bank0
  1442  07B9  1303               	btfsc	(6),0	;volatile
  1443  07BA  1806               	goto	u461
  1444  07BB  2FBD               	goto	u460
  1445  07BC  2FBE               u461:
  1446  07BD                     	goto	l924
  1447  07BD  2FD6               u460:
  1448  07BE                     	
  1449                           l910:	
  1450  07BE                     	btfsc	(5),1	;volatile
  1451  07BE  1885               	goto	u471
  1452  07BF  2FC1               	goto	u470
  1453  07C0  2FC2               u471:
  1454  07C1                     	goto	l924
  1455  07C1  2FD6               u470:
  1456  07C2                     	line	220
  1457                           	
  1458                           l912:	
  1459  07C2                     ;STARTcobalt10.06.21.c: 220:     }
  1460                           	clrf	(_u)
  1461  07C2  01FA               	line	221
  1462                           	
  1463                           l914:	
  1464  07C3                     ;STARTcobalt10.06.21.c: 221:     return;
  1465                           	btfss	(6),2	;volatile
  1466  07C3  1D06               	goto	u481
  1467  07C4  2FC6               	goto	u480
  1468  07C5  2FC7               u481:
  1469  07C6                     	goto	l922
  1470  07C6  2FD2               u480:
  1471  07C7                     	line	222
  1472                           	
  1473                           l916:	
  1474  07C7                     ;STARTcobalt10.06.21.c: 222: }
  1475                           	fcall	_zvuk
  1476  07C7  2510               	line	223
  1477                           	
  1478                           l918:	
  1479  07C8                     	opt asmopt_push
  1480                           opt asmopt_off
  1481                           movlw	78
  1482  07C8  304E               movwf	((??_main+0)+0+1),f
  1483  07C9  00F6               	movlw	235
  1484  07CA  30EB               movwf	((??_main+0)+0),f
  1485  07CB  00F5               	u677:
  1486  07CC                     decfsz	((??_main+0)+0),f
  1487  07CC  0BF5               	goto	u677
  1488  07CD  2FCC               	decfsz	((??_main+0)+0+1),f
  1489  07CE  0BF6               	goto	u677
  1490  07CF  2FCC               opt asmopt_pop
  1491                           
  1492                           	line	224
  1493                           	
  1494                           l920:	
  1495  07D0                     	fcall	_zvuk
  1496  07D0  2510               	line	225
  1497                           	goto	l924
  1498  07D1  2FD6               	
  1499                           l106:	
  1500  07D2                     	line	226
  1501                           	
  1502                           l922:	
  1503  07D2                     	fcall	_zvuk
  1504  07D2  2510               	line	227
  1505                           	fcall	_start
  1506  07D3  25A2               	goto	l924
  1507  07D4  2FD6               	line	228
  1508                           	
  1509                           l107:	
  1510  07D5                     	goto	l924
  1511  07D5  2FD6               	line	229
  1512                           	
  1513                           l105:	
  1514  07D6                     	line	230
  1515                           	
  1516                           l924:	
  1517  07D6                     	movlw	low(014h)
  1518  07D6  3014               	subwf	(_u),w
  1519  07D7  027A               	skipc
  1520  07D8  1C03               	goto	u491
  1521  07D9  2FDB               	goto	u490
  1522  07DA  2FDC               u491:
  1523  07DB                     	goto	l934
  1524  07DB  2FEA               u490:
  1525  07DC                     	
  1526                           l926:	
  1527  07DC                     	bcf	status, 5	;RP0=0, select bank0
  1528  07DC  1283               	bcf	status, 6	;RP1=0, select bank0
  1529  07DD  1303               	btfss	(6),0	;volatile
  1530  07DE  1C06               	goto	u501
  1531  07DF  2FE1               	goto	u500
  1532  07E0  2FE2               u501:
  1533  07E1                     	goto	l934
  1534  07E1  2FEA               u500:
  1535  07E2                     	
  1536                           l928:	
  1537  07E2                     	btfsc	(5),1	;volatile
  1538  07E2  1885               	goto	u511
  1539  07E3  2FE5               	goto	u510
  1540  07E4  2FE6               u511:
  1541  07E5                     	goto	l934
  1542  07E5  2FEA               u510:
  1543  07E6                     	line	231
  1544                           	
  1545                           l930:	
  1546  07E6                     	clrf	(_u)
  1547  07E6  01FA               	line	232
  1548                           	
  1549                           l932:	
  1550  07E7                     	fcall	_stop
  1551  07E7  2531               	goto	l934
  1552  07E8  2FEA               	line	233
  1553                           	
  1554                           l108:	
  1555  07E9                     	goto	l934
  1556  07E9  2FEA               	line	234
  1557                           	
  1558                           l103:	
  1559  07EA                     	line	216
  1560                           	
  1561                           l934:	
  1562  07EA                     ;STARTcobalt10.06.21.c: 216:                 }
  1563                           	bcf	status, 5	;RP0=0, select bank0
  1564  07EA  1283               	bcf	status, 6	;RP1=0, select bank0
  1565  07EB  1303               	btfsc	(5),1	;volatile
  1566  07EC  1885               	goto	u521
  1567  07ED  2FEF               	goto	u520
  1568  07EE  2FF0               u521:
  1569  07EF                     	goto	l902
  1570  07EF  2FA1               u520:
  1571  07F0                     	goto	l89
  1572  07F0  2FF2               	
  1573                           l109:	
  1574  07F1                     	goto	l89
  1575  07F1  2FF2               	line	236
  1576                           	
  1577                           l102:	
  1578  07F2                     	line	237
  1579                           	
  1580                           l89:	
  1581  07F2                     	line	184
  1582                           ;STARTcobalt10.06.21.c: 184:             } else if (status == 2 && PORTBbits.RB1 == 0 &&
                                  PORTBbits.RB0 == 0) {
  1583                           	btfsc	(5),1	;volatile
  1584  07F2  1885               	goto	u531
  1585  07F3  2FF5               	goto	u530
  1586  07F4  2FF6               u531:
  1587  07F5                     	goto	l844
  1588  07F5  2ED9               u530:
  1589  07F6                     	goto	l800
  1590  07F6  2E5B               	
  1591                           l110:	
  1592  07F7                     	goto	l800
  1593  07F7  2E5B               	line	238
  1594                           	
  1595                           l111:	
  1596  07F8                     	goto	l800
  1597  07F8  2E5B               	
  1598                           l112:	
  1599  07F9                     	line	240
  1600                           	
  1601                           l113:	
  1602  07F9                     	global	start
  1603                           	ljmp	start
  1604  07F9  2800               	opt stack 0
  1605                           GLOBAL	__end_of_main
  1606                           	__end_of_main:
  1607  07FA                     	signat	_main,89
  1608                           	global	_zajiganiya
  1609                           
  1610 ;; *************** function _zajiganiya *****************
  1611 ;; Defined at:
  1612 ;;		line 98 in file "STARTcobalt10.06.21.c"
  1613 ;; Parameters:    Size  Location     Type
  1614 ;;		None
  1615 ;; Auto vars:     Size  Location     Type
  1616 ;;		None
  1617 ;; Return value:  Size  Location     Type
  1618 ;;                  1    wreg      void 
  1619 ;; Registers used:
  1620 ;;		wreg
  1621 ;; Tracked objects:
  1622 ;;		On entry : 0/0
  1623 ;;		On exit  : 0/0
  1624 ;;		Unchanged: 0/0
  1625 ;; Data sizes:     COMMON   BANK0   BANK1   BANK2
  1626 ;;      Params:         0       0       0       0
  1627 ;;      Locals:         0       0       0       0
  1628 ;;      Temps:          2       0       0       0
  1629 ;;      Totals:         2       0       0       0
  1630 ;;Total ram usage:        2 bytes
  1631 ;; Hardware stack levels used:    1
  1632 ;; This function calls:
  1633 ;;		Nothing
  1634 ;; This function is called by:
  1635 ;;		_main
  1636 ;; This function uses a non-reentrant model
  1637 ;;
  1638                           psect	text1,local,class=CODE,delta=2,merge=1,group=0
  1639                           	line	98
  1640                           global __ptext1
  1641                           __ptext1:	;psect for function _zajiganiya
  1642  051F                     psect	text1
  1643                           	file	"STARTcobalt10.06.21.c"
  1644                           	line	98
  1645                           	global	__size_of_zajiganiya
  1646                           	__size_of_zajiganiya	equ	__end_of_zajiganiya-_zajiganiya
  1647  0012                     	
  1648                           _zajiganiya:	
  1649  051F                     ;incstack = 0
  1650                           	opt	stack 7
  1651                           ; Regs used in _zajiganiya: [wreg]
  1652                           	line	99
  1653                           	
  1654                           l760:	
  1655  051F                     ;STARTcobalt10.06.21.c: 99:         }
  1656                           	bcf	status, 5	;RP0=0, select bank0
  1657  051F  1283               	bcf	status, 6	;RP1=0, select bank0
  1658  0520  1303               	bsf	(6),4	;volatile
  1659  0521  1606               	line	100
  1660                           ;STARTcobalt10.06.21.c: 100:     } else {
  1661                           	bsf	(6),6	;volatile
  1662  0522  1706               	line	101
  1663                           	
  1664                           l762:	
  1665  0523                     ;STARTcobalt10.06.21.c: 101:         status = 1;
  1666                           	movlw	low(02h)
  1667  0523  3002               	movwf	(??_zajiganiya+0)+0
  1668  0524  00F0               	movf	(??_zajiganiya+0)+0,w
  1669  0525  0870               	movwf	(_status)
  1670  0526  00F9               	line	102
  1671                           ;STARTcobalt10.06.21.c: 102:     }
  1672                           	opt asmopt_push
  1673                           opt asmopt_off
  1674                           movlw	130
  1675  0527  3082               movwf	((??_zajiganiya+0)+0+1),f
  1676  0528  00F1               	movlw	221
  1677  0529  30DD               movwf	((??_zajiganiya+0)+0),f
  1678  052A  00F0               	u687:
  1679  052B                     decfsz	((??_zajiganiya+0)+0),f
  1680  052B  0BF0               	goto	u687
  1681  052C  2D2B               	decfsz	((??_zajiganiya+0)+0+1),f
  1682  052D  0BF1               	goto	u687
  1683  052E  2D2B               	nop2
  1684  052F  2D30               opt asmopt_pop
  1685                           
  1686                           	line	103
  1687                           	
  1688                           l57:	
  1689  0530                     	return
  1690  0530  0008               	opt stack 0
  1691                           GLOBAL	__end_of_zajiganiya
  1692                           	__end_of_zajiganiya:
  1693  0531                     	signat	_zajiganiya,89
  1694                           	global	_stop
  1695                           
  1696 ;; *************** function _stop *****************
  1697 ;; Defined at:
  1698 ;;		line 89 in file "STARTcobalt10.06.21.c"
  1699 ;; Parameters:    Size  Location     Type
  1700 ;;		None
  1701 ;; Auto vars:     Size  Location     Type
  1702 ;;		None
  1703 ;; Return value:  Size  Location     Type
  1704 ;;                  1    wreg      void 
  1705 ;; Registers used:
  1706 ;;		wreg, status,2
  1707 ;; Tracked objects:
  1708 ;;		On entry : 0/0
  1709 ;;		On exit  : 0/0
  1710 ;;		Unchanged: 0/0
  1711 ;; Data sizes:     COMMON   BANK0   BANK1   BANK2
  1712 ;;      Params:         0       0       0       0
  1713 ;;      Locals:         0       0       0       0
  1714 ;;      Temps:          3       0       0       0
  1715 ;;      Totals:         3       0       0       0
  1716 ;;Total ram usage:        3 bytes
  1717 ;; Hardware stack levels used:    1
  1718 ;; This function calls:
  1719 ;;		Nothing
  1720 ;; This function is called by:
  1721 ;;		_main
  1722 ;; This function uses a non-reentrant model
  1723 ;;
  1724                           psect	text2,local,class=CODE,delta=2,merge=1,group=0
  1725                           	line	89
  1726                           global __ptext2
  1727                           __ptext2:	;psect for function _stop
  1728  0531                     psect	text2
  1729                           	file	"STARTcobalt10.06.21.c"
  1730                           	line	89
  1731                           	global	__size_of_stop
  1732                           	__size_of_stop	equ	__end_of_stop-_stop
  1733  0016                     	
  1734                           _stop:	
  1735  0531                     ;incstack = 0
  1736                           	opt	stack 7
  1737                           ; Regs used in _stop: [wreg+status,2]
  1738                           	line	90
  1739                           	
  1740                           l750:	
  1741  0531                     ;STARTcobalt10.06.21.c: 90:     _delay((unsigned long)((100)*(4000000/4000.0)));
  1742                           	movlw	low(080h)
  1743  0531  3080               	bcf	status, 5	;RP0=0, select bank0
  1744  0532  1283               	bcf	status, 6	;RP1=0, select bank0
  1745  0533  1303               	movwf	(5)	;volatile
  1746  0534  0085               	line	91
  1747                           	
  1748                           l752:	
  1749  0535                     ;STARTcobalt10.06.21.c: 91:     if (PORTBbits.RB1 == 1) {
  1750                           	clrf	(6)	;volatile
  1751  0535  0186               	line	92
  1752                           	
  1753                           l754:	
  1754  0536                     ;STARTcobalt10.06.21.c: 92:         if (PORTBbits.RB2 == 1) {
  1755                           	clrf	(_starts)
  1756  0536  01F8               	line	93
  1757                           	
  1758                           l756:	
  1759  0537                     ;STARTcobalt10.06.21.c: 93:             zvuk();
  1760                           	clrf	(_status)
  1761  0537  01F9               	line	94
  1762                           	
  1763                           l758:	
  1764  0538                     ;STARTcobalt10.06.21.c: 94:             _delay((unsigned long)((60)*(4000000/4000.0)));

  1765                           	clrf	(_u)
  1766  0538  01FA               	line	95
  1767                           ;STARTcobalt10.06.21.c: 95:             zvuk();
  1768                           	opt asmopt_push
  1769                           opt asmopt_off
  1770                           movlw  3
  1771  0539  3003               movwf	((??_stop+0)+0+2),f
  1772  053A  00F2               movlw	138
  1773  053B  308A               movwf	((??_stop+0)+0+1),f
  1774  053C  00F1               	movlw	85
  1775  053D  3055               movwf	((??_stop+0)+0),f
  1776  053E  00F0               	u697:
  1777  053F                     decfsz	((??_stop+0)+0),f
  1778  053F  0BF0               	goto	u697
  1779  0540  2D3F               	decfsz	((??_stop+0)+0+1),f
  1780  0541  0BF1               	goto	u697
  1781  0542  2D3F               	decfsz	((??_stop+0)+0+2),f
  1782  0543  0BF2               	goto	u697
  1783  0544  2D3F               	nop2
  1784  0545  2D46               opt asmopt_pop
  1785                           
  1786                           	line	96
  1787                           	
  1788                           l54:	
  1789  0546                     	return
  1790  0546  0008               	opt stack 0
  1791                           GLOBAL	__end_of_stop
  1792                           	__end_of_stop:
  1793  0547                     	signat	_stop,89
  1794                           	global	_ohrana
  1795                           
  1796 ;; *************** function _ohrana *****************
  1797 ;; Defined at:
  1798 ;;		line 51 in file "STARTcobalt10.06.21.c"
  1799 ;; Parameters:    Size  Location     Type
  1800 ;;		None
  1801 ;; Auto vars:     Size  Location     Type
  1802 ;;		None
  1803 ;; Return value:  Size  Location     Type
  1804 ;;                  1    wreg      void 
  1805 ;; Registers used:
  1806 ;;		status,2
  1807 ;; Tracked objects:
  1808 ;;		On entry : 0/0
  1809 ;;		On exit  : 0/0
  1810 ;;		Unchanged: 0/0
  1811 ;; Data sizes:     COMMON   BANK0   BANK1   BANK2
  1812 ;;      Params:         0       0       0       0
  1813 ;;      Locals:         0       0       0       0
  1814 ;;      Temps:          0       0       0       0
  1815 ;;      Totals:         0       0       0       0
  1816 ;;Total ram usage:        0 bytes
  1817 ;; Hardware stack levels used:    1
  1818 ;; This function calls:
  1819 ;;		Nothing
  1820 ;; This function is called by:
  1821 ;;		_main
  1822 ;; This function uses a non-reentrant model
  1823 ;;
  1824                           psect	text3,local,class=CODE,delta=2,merge=1,group=0
  1825                           	line	51
  1826                           global __ptext3
  1827                           __ptext3:	;psect for function _ohrana
  1828  0501                     psect	text3
  1829                           	file	"STARTcobalt10.06.21.c"
  1830                           	line	51
  1831                           	global	__size_of_ohrana
  1832                           	__size_of_ohrana	equ	__end_of_ohrana-_ohrana
  1833  0007                     	
  1834                           _ohrana:	
  1835  0501                     ;incstack = 0
  1836                           	opt	stack 7
  1837                           ; Regs used in _ohrana: [status,2]
  1838                           	line	52
  1839                           	
  1840                           l748:	
  1841  0501                     ;STARTcobalt10.06.21.c: 52:             starts = 1;
  1842                           	bcf	status, 5	;RP0=0, select bank0
  1843  0501  1283               	bcf	status, 6	;RP1=0, select bank0
  1844  0502  1303               	clrf	(5)	;volatile
  1845  0503  0185               	line	53
  1846                           ;STARTcobalt10.06.21.c: 53:         }
  1847                           	clrf	(6)	;volatile
  1848  0504  0186               	line	54
  1849                           ;STARTcobalt10.06.21.c: 54:     }
  1850                           	clrf	(_starts)
  1851  0505  01F8               	line	55
  1852                           ;STARTcobalt10.06.21.c: 55:     PORTBbits.RB5 = 0;
  1853                           	clrf	(_status)
  1854  0506  01F9               	line	56
  1855                           	
  1856                           l44:	
  1857  0507                     	return
  1858  0507  0008               	opt stack 0
  1859                           GLOBAL	__end_of_ohrana
  1860                           	__end_of_ohrana:
  1861  0508                     	signat	_ohrana,89
  1862                           	global	_magnitafon
  1863                           
  1864 ;; *************** function _magnitafon *****************
  1865 ;; Defined at:
  1866 ;;		line 105 in file "STARTcobalt10.06.21.c"
  1867 ;; Parameters:    Size  Location     Type
  1868 ;;		None
  1869 ;; Auto vars:     Size  Location     Type
  1870 ;;		None
  1871 ;; Return value:  Size  Location     Type
  1872 ;;                  1    wreg      void 
  1873 ;; Registers used:
  1874 ;;		wreg, status,2, status,0, pclath, cstack
  1875 ;; Tracked objects:
  1876 ;;		On entry : 0/0
  1877 ;;		On exit  : 0/0
  1878 ;;		Unchanged: 0/0
  1879 ;; Data sizes:     COMMON   BANK0   BANK1   BANK2
  1880 ;;      Params:         0       0       0       0
  1881 ;;      Locals:         0       0       0       0
  1882 ;;      Temps:          2       0       0       0
  1883 ;;      Totals:         2       0       0       0
  1884 ;;Total ram usage:        2 bytes
  1885 ;; Hardware stack levels used:    1
  1886 ;; Hardware stack levels required when called:    1
  1887 ;; This function calls:
  1888 ;;		_start
  1889 ;;		_zvuk
  1890 ;; This function is called by:
  1891 ;;		_main
  1892 ;; This function uses a non-reentrant model
  1893 ;;
  1894                           psect	text4,local,class=CODE,delta=2,merge=1,group=0
  1895                           	line	105
  1896                           global __ptext4
  1897                           __ptext4:	;psect for function _magnitafon
  1898  0547                     psect	text4
  1899                           	file	"STARTcobalt10.06.21.c"
  1900                           	line	105
  1901                           	global	__size_of_magnitafon
  1902                           	__size_of_magnitafon	equ	__end_of_magnitafon-_magnitafon
  1903  002A                     	
  1904                           _magnitafon:	
  1905  0547                     ;incstack = 0
  1906                           	opt	stack 6
  1907                           ; Regs used in _magnitafon: [wreg+status,2+status,0+pclath+cstack]
  1908                           	line	106
  1909                           	
  1910                           l764:	
  1911  0547                     ;STARTcobalt10.06.21.c: 106: void main(void) {
  1912                           	bcf	status, 5	;RP0=0, select bank0
  1913  0547  1283               	bcf	status, 6	;RP1=0, select bank0
  1914  0548  1303               	bsf	(6),3	;volatile
  1915  0549  1586               	line	107
  1916                           ;STARTcobalt10.06.21.c: 107:     TRISA = 0b00000110;
  1917                           	bsf	(5),0	;volatile
  1918  054A  1405               	line	108
  1919                           	
  1920                           l766:	
  1921  054B                     ;STARTcobalt10.06.21.c: 108:     TRISB = 0b00000111;
  1922                           	opt asmopt_push
  1923                           opt asmopt_off
  1924                           movlw	130
  1925  054B  3082               movwf	((??_magnitafon+0)+0+1),f
  1926  054C  00F4               	movlw	221
  1927  054D  30DD               movwf	((??_magnitafon+0)+0),f
  1928  054E  00F3               	u707:
  1929  054F                     decfsz	((??_magnitafon+0)+0),f
  1930  054F  0BF3               	goto	u707
  1931  0550  2D4F               	decfsz	((??_magnitafon+0)+0+1),f
  1932  0551  0BF4               	goto	u707
  1933  0552  2D4F               	nop2
  1934  0553  2D54               opt asmopt_pop
  1935                           
  1936                           	line	109
  1937                           	
  1938                           l768:	
  1939  0554                     ;STARTcobalt10.06.21.c: 109:     PORTA = 0b00000000;
  1940                           	bcf	status, 5	;RP0=0, select bank0
  1941  0554  1283               	bcf	status, 6	;RP1=0, select bank0
  1942  0555  1303               	btfss	(6),1	;volatile
  1943  0556  1C86               	goto	u81
  1944  0557  2D59               	goto	u80
  1945  0558  2D5A               u81:
  1946  0559                     	goto	l60
  1947  0559  2D6D               u80:
  1948  055A                     	line	110
  1949                           	
  1950                           l770:	
  1951  055A                     ;STARTcobalt10.06.21.c: 110:     PORTB = 0b00000000;
  1952                           	btfss	(6),2	;volatile
  1953  055A  1D06               	goto	u91
  1954  055B  2D5D               	goto	u90
  1955  055C  2D5E               u91:
  1956  055D                     	goto	l778
  1957  055D  2D69               u90:
  1958  055E                     	line	111
  1959                           	
  1960                           l772:	
  1961  055E                     ;STARTcobalt10.06.21.c: 111: 
  1962                           	fcall	_zvuk
  1963  055E  2510               	line	112
  1964                           	
  1965                           l774:	
  1966  055F                     ;STARTcobalt10.06.21.c: 112:     OPTION_REG = 0b10000000;
  1967                           	opt asmopt_push
  1968                           opt asmopt_off
  1969                           movlw	78
  1970  055F  304E               movwf	((??_magnitafon+0)+0+1),f
  1971  0560  00F4               	movlw	235
  1972  0561  30EB               movwf	((??_magnitafon+0)+0),f
  1973  0562  00F3               	u717:
  1974  0563                     decfsz	((??_magnitafon+0)+0),f
  1975  0563  0BF3               	goto	u717
  1976  0564  2D63               	decfsz	((??_magnitafon+0)+0+1),f
  1977  0565  0BF4               	goto	u717
  1978  0566  2D63               opt asmopt_pop
  1979                           
  1980                           	line	113
  1981                           	
  1982                           l776:	
  1983  0567                     ;STARTcobalt10.06.21.c: 113:     CMCON = 0b00000111;
  1984                           	fcall	_zvuk
  1985  0567  2510               	line	114
  1986                           ;STARTcobalt10.06.21.c: 114:     PORTAbits.RA7 = 1;
  1987                           	goto	l64
  1988  0568  2D70               	
  1989                           l61:	
  1990  0569                     	line	115
  1991                           	
  1992                           l778:	
  1993  0569                     ;STARTcobalt10.06.21.c: 115:     while (1) {
  1994                           	fcall	_zvuk
  1995  0569  2510               	line	116
  1996                           ;STARTcobalt10.06.21.c: 116: 
  1997                           	fcall	_start
  1998  056A  25A2               	goto	l64
  1999  056B  2D70               	line	117
  2000                           ;STARTcobalt10.06.21.c: 117:         while (PORTAbits.RA2 == 0) {
  2001                           	
  2002                           l62:	
  2003  056C                     	line	118
  2004                           ;STARTcobalt10.06.21.c: 118:             _delay((unsigned long)((100)*(4000000/4000.0)))
                                 ;
  2005                           	goto	l64
  2006  056C  2D70               	
  2007                           l60:	
  2008  056D                     	line	119
  2009                           ;STARTcobalt10.06.21.c: 119: 
  2010                           	clrf	(_status)
  2011  056D  01F9               	incf	(_status),f
  2012  056E  0AF9               	goto	l64
  2013  056F  2D70               	line	120
  2014                           ;STARTcobalt10.06.21.c: 120:             if (PORTAbits.RA2 == 0) {
  2015                           	
  2016                           l63:	
  2017  0570                     	line	122
  2018                           	
  2019                           l64:	
  2020  0570                     	return
  2021  0570  0008               	opt stack 0
  2022                           GLOBAL	__end_of_magnitafon
  2023                           	__end_of_magnitafon:
  2024  0571                     	signat	_magnitafon,89
  2025                           	global	_zvuk
  2026                           
  2027 ;; *************** function _zvuk *****************
  2028 ;; Defined at:
  2029 ;;		line 25 in file "STARTcobalt10.06.21.c"
  2030 ;; Parameters:    Size  Location     Type
  2031 ;;		None
  2032 ;; Auto vars:     Size  Location     Type
  2033 ;;		None
  2034 ;; Return value:  Size  Location     Type
  2035 ;;                  1    wreg      void 
  2036 ;; Registers used:
  2037 ;;		wreg
  2038 ;; Tracked objects:
  2039 ;;		On entry : 0/0
  2040 ;;		On exit  : 0/0
  2041 ;;		Unchanged: 0/0
  2042 ;; Data sizes:     COMMON   BANK0   BANK1   BANK2
  2043 ;;      Params:         0       0       0       0
  2044 ;;      Locals:         0       0       0       0
  2045 ;;      Temps:          2       0       0       0
  2046 ;;      Totals:         2       0       0       0
  2047 ;;Total ram usage:        2 bytes
  2048 ;; Hardware stack levels used:    1
  2049 ;; This function calls:
  2050 ;;		Nothing
  2051 ;; This function is called by:
  2052 ;;		_magnitafon
  2053 ;;		_main
  2054 ;; This function uses a non-reentrant model
  2055 ;;
  2056                           psect	text5,local,class=CODE,delta=2,merge=1,group=0
  2057                           	line	25
  2058                           global __ptext5
  2059                           __ptext5:	;psect for function _zvuk
  2060  0510                     psect	text5
  2061                           	file	"STARTcobalt10.06.21.c"
  2062                           	line	25
  2063                           	global	__size_of_zvuk
  2064                           	__size_of_zvuk	equ	__end_of_zvuk-_zvuk
  2065  000F                     	
  2066                           _zvuk:	
  2067  0510                     ;incstack = 0
  2068                           	opt	stack 7
  2069                           ; Regs used in _zvuk: [wreg]
  2070                           	line	26
  2071                           	
  2072                           l686:	
  2073  0510                     ;STARTcobalt10.06.21.c: 26:         _delay((unsigned long)((160)*(4000000/4000.0)));
  2074                           	bcf	status, 5	;RP0=0, select bank0
  2075  0510  1283               	bcf	status, 6	;RP1=0, select bank0
  2076  0511  1303               	bsf	(5),6	;volatile
  2077  0512  1705               	line	27
  2078                           	
  2079                           l688:	
  2080  0513                     ;STARTcobalt10.06.21.c: 27:         if (PORTBbits.RB1 == 1) {
  2081                           	opt asmopt_push
  2082                           opt asmopt_off
  2083                           movlw	78
  2084  0513  304E               movwf	((??_zvuk+0)+0+1),f
  2085  0514  00F1               	movlw	235
  2086  0515  30EB               movwf	((??_zvuk+0)+0),f
  2087  0516  00F0               	u727:
  2088  0517                     decfsz	((??_zvuk+0)+0),f
  2089  0517  0BF0               	goto	u727
  2090  0518  2D17               	decfsz	((??_zvuk+0)+0+1),f
  2091  0519  0BF1               	goto	u727
  2092  051A  2D17               opt asmopt_pop
  2093                           
  2094                           	line	28
  2095                           	
  2096                           l690:	
  2097  051B                     ;STARTcobalt10.06.21.c: 28:             ohranastart();
  2098                           	bcf	status, 5	;RP0=0, select bank0
  2099  051B  1283               	bcf	status, 6	;RP1=0, select bank0
  2100  051C  1303               	bcf	(5),6	;volatile
  2101  051D  1305               	line	29
  2102                           	
  2103                           l29:	
  2104  051E                     	return
  2105  051E  0008               	opt stack 0
  2106                           GLOBAL	__end_of_zvuk
  2107                           	__end_of_zvuk:
  2108  051F                     	signat	_zvuk,89
  2109                           	global	_start
  2110                           
  2111 ;; *************** function _start *****************
  2112 ;; Defined at:
  2113 ;;		line 58 in file "STARTcobalt10.06.21.c"
  2114 ;; Parameters:    Size  Location     Type
  2115 ;;		None
  2116 ;; Auto vars:     Size  Location     Type
  2117 ;;		None
  2118 ;; Return value:  Size  Location     Type
  2119 ;;                  1    wreg      void 
  2120 ;; Registers used:
  2121 ;;		wreg, status,2, status,0
  2122 ;; Tracked objects:
  2123 ;;		On entry : 0/0
  2124 ;;		On exit  : 0/0
  2125 ;;		Unchanged: 0/0
  2126 ;; Data sizes:     COMMON   BANK0   BANK1   BANK2
  2127 ;;      Params:         0       0       0       0
  2128 ;;      Locals:         0       0       0       0
  2129 ;;      Temps:          3       0       0       0
  2130 ;;      Totals:         3       0       0       0
  2131 ;;Total ram usage:        3 bytes
  2132 ;; Hardware stack levels used:    1
  2133 ;; This function calls:
  2134 ;;		Nothing
  2135 ;; This function is called by:
  2136 ;;		_magnitafon
  2137 ;;		_main
  2138 ;; This function uses a non-reentrant model
  2139 ;;
  2140                           psect	text6,local,class=CODE,delta=2,merge=1,group=0
  2141                           	line	58
  2142                           global __ptext6
  2143                           __ptext6:	;psect for function _start
  2144  05A2                     psect	text6
  2145                           	file	"STARTcobalt10.06.21.c"
  2146                           	line	58
  2147                           	global	__size_of_start
  2148                           	__size_of_start	equ	__end_of_start-_start
  2149  0086                     	
  2150                           _start:	
  2151  05A2                     ;incstack = 0
  2152                           	opt	stack 7
  2153                           ; Regs used in _start: [wreg+status,2+status,0]
  2154                           	line	59
  2155                           	
  2156                           l694:	
  2157  05A2                     ;STARTcobalt10.06.21.c: 59:     PORTBbits.RB3 = 1;
  2158                           	bcf	status, 5	;RP0=0, select bank0
  2159  05A2  1283               	bcf	status, 6	;RP1=0, select bank0
  2160  05A3  1303               	bcf	(6),3	;volatile
  2161  05A4  1186               	line	60
  2162                           ;STARTcobalt10.06.21.c: 60:     PORTAbits.RA0 = 1;
  2163                           	bcf	(6),4	;volatile
  2164  05A5  1206               	line	61
  2165                           ;STARTcobalt10.06.21.c: 61:     u = 0;
  2166                           	bcf	(5),0	;volatile
  2167  05A6  1005               	line	62
  2168                           ;STARTcobalt10.06.21.c: 62:     _delay((unsigned long)((500)*(4000000/4000.0)));
  2169                           	bsf	(6),6	;volatile
  2170  05A7  1706               	line	63
  2171                           	
  2172                           l696:	
  2173  05A8                     ;STARTcobalt10.06.21.c: 63:     if (PORTBbits.RB0 == 0) {
  2174                           	opt asmopt_push
  2175                           opt asmopt_off
  2176                           movlw  6
  2177  05A8  3006               movwf	((??_start+0)+0+2),f
  2178  05A9  00F2               movlw	19
  2179  05AA  3013               movwf	((??_start+0)+0+1),f
  2180  05AB  00F1               	movlw	173
  2181  05AC  30AD               movwf	((??_start+0)+0),f
  2182  05AD  00F0               	u737:
  2183  05AE                     decfsz	((??_start+0)+0),f
  2184  05AE  0BF0               	goto	u737
  2185  05AF  2DAE               	decfsz	((??_start+0)+0+1),f
  2186  05B0  0BF1               	goto	u737
  2187  05B1  2DAE               	decfsz	((??_start+0)+0+2),f
  2188  05B2  0BF2               	goto	u737
  2189  05B3  2DAE               	nop2
  2190  05B4  2DB5               opt asmopt_pop
  2191                           
  2192                           	line	64
  2193                           	
  2194                           l698:	
  2195  05B5                     ;STARTcobalt10.06.21.c: 64:         PORTBbits.RB4 = 0;
  2196                           	bcf	status, 5	;RP0=0, select bank0
  2197  05B5  1283               	bcf	status, 6	;RP1=0, select bank0
  2198  05B6  1303               	bsf	(6),5	;volatile
  2199  05B7  1686               	line	65
  2200                           ;STARTcobalt10.06.21.c: 65:         PORTBbits.RB3 = 0;
  2201                           	opt asmopt_push
  2202                           opt asmopt_off
  2203                           movlw  2
  2204  05B8  3002               movwf	((??_start+0)+0+2),f
  2205  05B9  00F2               movlw	82
  2206  05BA  3052               movwf	((??_start+0)+0+1),f
  2207  05BB  00F1               	movlw	166
  2208  05BC  30A6               movwf	((??_start+0)+0),f
  2209  05BD  00F0               	u747:
  2210  05BE                     decfsz	((??_start+0)+0),f
  2211  05BE  0BF0               	goto	u747
  2212  05BF  2DBE               	decfsz	((??_start+0)+0+1),f
  2213  05C0  0BF1               	goto	u747
  2214  05C1  2DBE               	decfsz	((??_start+0)+0+2),f
  2215  05C2  0BF2               	goto	u747
  2216  05C3  2DBE               	nop
  2217  05C4  0000               opt asmopt_pop
  2218                           
  2219                           	line	66
  2220                           	
  2221                           l700:	
  2222  05C5                     ;STARTcobalt10.06.21.c: 66:         PORTAbits.RA0 = 0;
  2223                           	clrf	(_i)
  2224  05C5  01FB               	
  2225                           l702:	
  2226  05C6                     	movlw	low(0Bh)
  2227  05C6  300B               	subwf	(_i),w
  2228  05C7  027B               	skipc
  2229  05C8  1C03               	goto	u11
  2230  05C9  2DCB               	goto	u10
  2231  05CA  2DCC               u11:
  2232  05CB                     	goto	l706
  2233  05CB  2DCE               u10:
  2234  05CC                     	goto	l48
  2235  05CC  2DF2               	
  2236                           l704:	
  2237  05CD                     	goto	l48
  2238  05CD  2DF2               	
  2239                           l47:	
  2240  05CE                     	line	67
  2241                           	
  2242                           l706:	
  2243  05CE                     ;STARTcobalt10.06.21.c: 67:         PORTBbits.RB6 = 0;
  2244                           	opt asmopt_push
  2245                           opt asmopt_off
  2246                           movlw  2
  2247  05CE  3002               movwf	((??_start+0)+0+2),f
  2248  05CF  00F2               movlw	69
  2249  05D0  3045               movwf	((??_start+0)+0+1),f
  2250  05D1  00F1               	movlw	169
  2251  05D2  30A9               movwf	((??_start+0)+0),f
  2252  05D3  00F0               	u757:
  2253  05D4                     decfsz	((??_start+0)+0),f
  2254  05D4  0BF0               	goto	u757
  2255  05D5  2DD4               	decfsz	((??_start+0)+0+1),f
  2256  05D6  0BF1               	goto	u757
  2257  05D7  2DD4               	decfsz	((??_start+0)+0+2),f
  2258  05D8  0BF2               	goto	u757
  2259  05D9  2DD4               	nop2
  2260  05DA  2DDB               opt asmopt_pop
  2261                           
  2262                           	line	68
  2263                           	
  2264                           l708:	
  2265  05DB                     ;STARTcobalt10.06.21.c: 68:     }
  2266                           	bcf	status, 5	;RP0=0, select bank0
  2267  05DB  1283               	bcf	status, 6	;RP1=0, select bank0
  2268  05DC  1303               	btfss	(6),0	;volatile
  2269  05DD  1C06               	goto	u21
  2270  05DE  2DE0               	goto	u20
  2271  05DF  2DE1               u21:
  2272  05E0                     	goto	l714
  2273  05E0  2DE8               u20:
  2274  05E1                     	line	69
  2275                           	
  2276                           l710:	
  2277  05E1                     ;STARTcobalt10.06.21.c: 69: }
  2278                           	movlw	low(0Bh)
  2279  05E1  300B               	movwf	(??_start+0)+0
  2280  05E2  00F0               	movf	(??_start+0)+0,w
  2281  05E3  0870               	movwf	(_i)
  2282  05E4  00FB               	line	70
  2283                           	
  2284                           l712:	
  2285  05E5                     ;STARTcobalt10.06.21.c: 70: 
  2286                           	clrf	(_starts)
  2287  05E5  01F8               	incf	(_starts),f
  2288  05E6  0AF8               	goto	l714
  2289  05E7  2DE8               	line	71
  2290                           ;STARTcobalt10.06.21.c: 71: void stop() {
  2291                           	
  2292                           l49:	
  2293  05E8                     	line	72
  2294                           	
  2295                           l714:	
  2296  05E8                     ;STARTcobalt10.06.21.c: 72:     PORTA = 0b10000000;
  2297                           	movlw	low(01h)
  2298  05E8  3001               	movwf	(??_start+0)+0
  2299  05E9  00F0               	movf	(??_start+0)+0,w
  2300  05EA  0870               	addwf	(_i),f
  2301  05EB  07FB               	
  2302                           l716:	
  2303  05EC                     	movlw	low(0Bh)
  2304  05EC  300B               	subwf	(_i),w
  2305  05ED  027B               	skipc
  2306  05EE  1C03               	goto	u31
  2307  05EF  2DF1               	goto	u30
  2308  05F0  2DF2               u31:
  2309  05F1                     	goto	l706
  2310  05F1  2DCE               u30:
  2311  05F2                     	
  2312                           l48:	
  2313  05F2                     	line	73
  2314                           ;STARTcobalt10.06.21.c: 73:     PORTB = 0b00000000;
  2315                           	bcf	status, 5	;RP0=0, select bank0
  2316  05F2  1283               	bcf	status, 6	;RP1=0, select bank0
  2317  05F3  1303               	bcf	(6),5	;volatile
  2318  05F4  1286               	line	74
  2319                           	
  2320                           l718:	
  2321  05F5                     ;STARTcobalt10.06.21.c: 74:     starts = 0;
  2322                           	opt asmopt_push
  2323                           opt asmopt_off
  2324                           movlw	130
  2325  05F5  3082               movwf	((??_start+0)+0+1),f
  2326  05F6  00F1               	movlw	221
  2327  05F7  30DD               movwf	((??_start+0)+0),f
  2328  05F8  00F0               	u767:
  2329  05F9                     decfsz	((??_start+0)+0),f
  2330  05F9  0BF0               	goto	u767
  2331  05FA  2DF9               	decfsz	((??_start+0)+0+1),f
  2332  05FB  0BF1               	goto	u767
  2333  05FC  2DF9               	nop2
  2334  05FD  2DFE               opt asmopt_pop
  2335                           
  2336                           	line	75
  2337                           	
  2338                           l720:	
  2339  05FE                     ;STARTcobalt10.06.21.c: 75:     status = 0;
  2340                           	bcf	status, 5	;RP0=0, select bank0
  2341  05FE  1283               	bcf	status, 6	;RP1=0, select bank0
  2342  05FF  1303               	bsf	(6),4	;volatile
  2343  0600  1606               	line	76
  2344                           ;STARTcobalt10.06.21.c: 76:     u = 0;
  2345                           	opt asmopt_push
  2346                           opt asmopt_off
  2347                           movlw	130
  2348  0601  3082               movwf	((??_start+0)+0+1),f
  2349  0602  00F1               	movlw	221
  2350  0603  30DD               movwf	((??_start+0)+0),f
  2351  0604  00F0               	u777:
  2352  0605                     decfsz	((??_start+0)+0),f
  2353  0605  0BF0               	goto	u777
  2354  0606  2E05               	decfsz	((??_start+0)+0+1),f
  2355  0607  0BF1               	goto	u777
  2356  0608  2E05               	nop2
  2357  0609  2E0A               opt asmopt_pop
  2358                           
  2359                           	line	77
  2360                           	
  2361                           l722:	
  2362  060A                     ;STARTcobalt10.06.21.c: 77:     _delay((unsigned long)((500)*(4000000/4000.0)));
  2363                           	bcf	status, 5	;RP0=0, select bank0
  2364  060A  1283               	bcf	status, 6	;RP1=0, select bank0
  2365  060B  1303               	bsf	(6),3	;volatile
  2366  060C  1586               	line	78
  2367                           	
  2368                           l724:	
  2369  060D                     ;STARTcobalt10.06.21.c: 78: }
  2370                           	bsf	(5),0	;volatile
  2371  060D  1405               	line	79
  2372                           	
  2373                           l726:	
  2374  060E                     ;STARTcobalt10.06.21.c: 79: 
  2375                           	clrf	(_u)
  2376  060E  01FA               	line	80
  2377                           	
  2378                           l728:	
  2379  060F                     ;STARTcobalt10.06.21.c: 80: void zajiganiya() {
  2380                           	opt asmopt_push
  2381                           opt asmopt_off
  2382                           movlw  3
  2383  060F  3003               movwf	((??_start+0)+0+2),f
  2384  0610  00F2               movlw	138
  2385  0611  308A               movwf	((??_start+0)+0+1),f
  2386  0612  00F1               	movlw	85
  2387  0613  3055               movwf	((??_start+0)+0),f
  2388  0614  00F0               	u787:
  2389  0615                     decfsz	((??_start+0)+0),f
  2390  0615  0BF0               	goto	u787
  2391  0616  2E15               	decfsz	((??_start+0)+0+1),f
  2392  0617  0BF1               	goto	u787
  2393  0618  2E15               	decfsz	((??_start+0)+0+2),f
  2394  0619  0BF2               	goto	u787
  2395  061A  2E15               	nop2
  2396  061B  2E1C               opt asmopt_pop
  2397                           
  2398                           	line	81
  2399                           	
  2400                           l730:	
  2401  061C                     ;STARTcobalt10.06.21.c: 81:     PORTBbits.RB4 = 1;
  2402                           	bcf	status, 5	;RP0=0, select bank0
  2403  061C  1283               	bcf	status, 6	;RP1=0, select bank0
  2404  061D  1303               	btfsc	(6),0	;volatile
  2405  061E  1806               	goto	u41
  2406  061F  2E21               	goto	u40
  2407  0620  2E22               u41:
  2408  0621                     	goto	l51
  2409  0621  2E27               u40:
  2410  0622                     	line	82
  2411                           	
  2412                           l732:	
  2413  0622                     ;STARTcobalt10.06.21.c: 82:     PORTBbits.RB6 = 1;
  2414                           	bcf	(6),4	;volatile
  2415  0622  1206               	line	83
  2416                           ;STARTcobalt10.06.21.c: 83:     status = 2;
  2417                           	bcf	(6),3	;volatile
  2418  0623  1186               	line	84
  2419                           ;STARTcobalt10.06.21.c: 84:     _delay((unsigned long)((100)*(4000000/4000.0)));
  2420                           	bcf	(5),0	;volatile
  2421  0624  1005               	line	85
  2422                           ;STARTcobalt10.06.21.c: 85: }
  2423                           	bcf	(6),6	;volatile
  2424  0625  1306               	goto	l51
  2425  0626  2E27               	line	86
  2426                           ;STARTcobalt10.06.21.c: 86: 
  2427                           	
  2428                           l50:	
  2429  0627                     	line	87
  2430                           	
  2431                           l51:	
  2432  0627                     	return
  2433  0627  0008               	opt stack 0
  2434                           GLOBAL	__end_of_start
  2435                           	__end_of_start:
  2436  0628                     	signat	_start,89
  2437                           	global	_flicker
  2438                           
  2439 ;; *************** function _flicker *****************
  2440 ;; Defined at:
  2441 ;;		line 39 in file "STARTcobalt10.06.21.c"
  2442 ;; Parameters:    Size  Location     Type
  2443 ;;		None
  2444 ;; Auto vars:     Size  Location     Type
  2445 ;;		None
  2446 ;; Return value:  Size  Location     Type
  2447 ;;                  1    wreg      void 
  2448 ;; Registers used:
  2449 ;;		wreg, status,2, status,0, pclath, cstack
  2450 ;; Tracked objects:
  2451 ;;		On entry : 0/0
  2452 ;;		On exit  : 0/0
  2453 ;;		Unchanged: 0/0
  2454 ;; Data sizes:     COMMON   BANK0   BANK1   BANK2
  2455 ;;      Params:         0       0       0       0
  2456 ;;      Locals:         0       0       0       0
  2457 ;;      Temps:          3       0       0       0
  2458 ;;      Totals:         3       0       0       0
  2459 ;;Total ram usage:        3 bytes
  2460 ;; Hardware stack levels used:    1
  2461 ;; Hardware stack levels required when called:    1
  2462 ;; This function calls:
  2463 ;;		_ohranastart
  2464 ;; This function is called by:
  2465 ;;		_main
  2466 ;; This function uses a non-reentrant model
  2467 ;;
  2468                           psect	text7,local,class=CODE,delta=2,merge=1,group=0
  2469                           	line	39
  2470                           global __ptext7
  2471                           __ptext7:	;psect for function _flicker
  2472  0571                     psect	text7
  2473                           	file	"STARTcobalt10.06.21.c"
  2474                           	line	39
  2475                           	global	__size_of_flicker
  2476                           	__size_of_flicker	equ	__end_of_flicker-_flicker
  2477  0031                     	
  2478                           _flicker:	
  2479  0571                     ;incstack = 0
  2480                           	opt	stack 6
  2481                           ; Regs used in _flicker: [wreg+status,2+status,0+pclath+cstack]
  2482                           	line	40
  2483                           	
  2484                           l734:	
  2485  0571                     ;STARTcobalt10.06.21.c: 40: void start() {
  2486                           	goto	l744
  2487  0571  2D95               	
  2488                           l36:	
  2489  0572                     	line	41
  2490                           ;STARTcobalt10.06.21.c: 41:     PORTBbits.RB3 = 0;
  2491                           	bsf	(5),7	;volatile
  2492  0572  1785               	line	42
  2493                           	
  2494                           l736:	
  2495  0573                     ;STARTcobalt10.06.21.c: 42:     PORTBbits.RB4 = 0;
  2496                           	opt asmopt_push
  2497                           opt asmopt_off
  2498                           movlw  2
  2499  0573  3002               movwf	((??_flicker+0)+0+2),f
  2500  0574  00F2               movlw	82
  2501  0575  3052               movwf	((??_flicker+0)+0+1),f
  2502  0576  00F1               	movlw	166
  2503  0577  30A6               movwf	((??_flicker+0)+0),f
  2504  0578  00F0               	u797:
  2505  0579                     decfsz	((??_flicker+0)+0),f
  2506  0579  0BF0               	goto	u797
  2507  057A  2D79               	decfsz	((??_flicker+0)+0+1),f
  2508  057B  0BF1               	goto	u797
  2509  057C  2D79               	decfsz	((??_flicker+0)+0+2),f
  2510  057D  0BF2               	goto	u797
  2511  057E  2D79               	nop
  2512  057F  0000               opt asmopt_pop
  2513                           
  2514                           	line	43
  2515                           	
  2516                           l738:	
  2517  0580                     ;STARTcobalt10.06.21.c: 43:     PORTAbits.RA0 = 0;
  2518                           	bcf	status, 5	;RP0=0, select bank0
  2519  0580  1283               	bcf	status, 6	;RP1=0, select bank0
  2520  0581  1303               	bcf	(5),7	;volatile
  2521  0582  1385               	line	44
  2522                           ;STARTcobalt10.06.21.c: 44:     PORTBbits.RB6 = 1;
  2523                           	opt asmopt_push
  2524                           opt asmopt_off
  2525                           movlw	208
  2526  0583  30D0               movwf	((??_flicker+0)+0+1),f
  2527  0584  00F1               	movlw	201
  2528  0585  30C9               movwf	((??_flicker+0)+0),f
  2529  0586  00F0               	u807:
  2530  0587                     decfsz	((??_flicker+0)+0),f
  2531  0587  0BF0               	goto	u807
  2532  0588  2D87               	decfsz	((??_flicker+0)+0+1),f
  2533  0589  0BF1               	goto	u807
  2534  058A  2D87               	nop2
  2535  058B  2D8C               opt asmopt_pop
  2536                           
  2537                           	line	45
  2538                           	
  2539                           l740:	
  2540  058C                     ;STARTcobalt10.06.21.c: 45:     _delay((unsigned long)((1000)*(4000000/4000.0)));
  2541                           	bcf	status, 5	;RP0=0, select bank0
  2542  058C  1283               	bcf	status, 6	;RP1=0, select bank0
  2543  058D  1303               	btfss	(6),1	;volatile
  2544  058E  1C86               	goto	u51
  2545  058F  2D91               	goto	u50
  2546  0590  2D92               u51:
  2547  0591                     	goto	l744
  2548  0591  2D95               u50:
  2549  0592                     	line	46
  2550                           	
  2551                           l742:	
  2552  0592                     ;STARTcobalt10.06.21.c: 46:     PORTBbits.RB5 = 1;
  2553                           	fcall	_ohranastart
  2554  0592  2508               	goto	l744
  2555  0593  2D95               	line	47
  2556                           ;STARTcobalt10.06.21.c: 47:     _delay((unsigned long)((260)*(4000000/4000.0)));
  2557                           	
  2558                           l37:	
  2559  0594                     	goto	l744
  2560  0594  2D95               	line	48
  2561                           ;STARTcobalt10.06.21.c: 48:     for (i = 0; i <= 10; i++) {
  2562                           	
  2563                           l35:	
  2564  0595                     	line	40
  2565                           	
  2566                           l744:	
  2567  0595                     ;STARTcobalt10.06.21.c: 40: void start() {
  2568                           	bcf	status, 5	;RP0=0, select bank0
  2569  0595  1283               	bcf	status, 6	;RP1=0, select bank0
  2570  0596  1303               	btfss	(6),0	;volatile
  2571  0597  1C06               	goto	u61
  2572  0598  2D9A               	goto	u60
  2573  0599  2D9B               u61:
  2574  059A                     	goto	l41
  2575  059A  2DA1               u60:
  2576  059B                     	
  2577                           l746:	
  2578  059B                     	btfss	(5),2	;volatile
  2579  059B  1D05               	goto	u71
  2580  059C  2D9E               	goto	u70
  2581  059D  2D9F               u71:
  2582  059E                     	goto	l36
  2583  059E  2D72               u70:
  2584  059F                     	goto	l41
  2585  059F  2DA1               	
  2586                           l39:	
  2587  05A0                     	goto	l41
  2588  05A0  2DA1               	
  2589                           l40:	
  2590  05A1                     	line	49
  2591                           	
  2592                           l41:	
  2593  05A1                     	return
  2594  05A1  0008               	opt stack 0
  2595                           GLOBAL	__end_of_flicker
  2596                           	__end_of_flicker:
  2597  05A2                     	signat	_flicker,89
  2598                           	global	_ohranastart
  2599                           
  2600 ;; *************** function _ohranastart *****************
  2601 ;; Defined at:
  2602 ;;		line 31 in file "STARTcobalt10.06.21.c"
  2603 ;; Parameters:    Size  Location     Type
  2604 ;;		None
  2605 ;; Auto vars:     Size  Location     Type
  2606 ;;		None
  2607 ;; Return value:  Size  Location     Type
  2608 ;;                  1    wreg      void 
  2609 ;; Registers used:
  2610 ;;		None
  2611 ;; Tracked objects:
  2612 ;;		On entry : 0/0
  2613 ;;		On exit  : 0/0
  2614 ;;		Unchanged: 0/0
  2615 ;; Data sizes:     COMMON   BANK0   BANK1   BANK2
  2616 ;;      Params:         0       0       0       0
  2617 ;;      Locals:         0       0       0       0
  2618 ;;      Temps:          0       0       0       0
  2619 ;;      Totals:         0       0       0       0
  2620 ;;Total ram usage:        0 bytes
  2621 ;; Hardware stack levels used:    1
  2622 ;; This function calls:
  2623 ;;		Nothing
  2624 ;; This function is called by:
  2625 ;;		_flicker
  2626 ;;		_main
  2627 ;; This function uses a non-reentrant model
  2628 ;;
  2629                           psect	text8,local,class=CODE,delta=2,merge=1,group=0
  2630                           	line	31
  2631                           global __ptext8
  2632                           __ptext8:	;psect for function _ohranastart
  2633  0508                     psect	text8
  2634                           	file	"STARTcobalt10.06.21.c"
  2635                           	line	31
  2636                           	global	__size_of_ohranastart
  2637                           	__size_of_ohranastart	equ	__end_of_ohranastart-_ohranastart
  2638  0008                     	
  2639                           _ohranastart:	
  2640  0508                     ;incstack = 0
  2641                           	opt	stack 7
  2642                           ; Regs used in _ohranastart: []
  2643                           	line	32
  2644                           	
  2645                           l692:	
  2646  0508                     ;STARTcobalt10.06.21.c: 32: 
  2647                           	bcf	status, 5	;RP0=0, select bank0
  2648  0508  1283               	bcf	status, 6	;RP1=0, select bank0
  2649  0509  1303               	bsf	(5),0	;volatile
  2650  050A  1405               	line	33
  2651                           ;STARTcobalt10.06.21.c: 33: void ohrana() {
  2652                           	bsf	(6),3	;volatile
  2653  050B  1586               	line	34
  2654                           ;STARTcobalt10.06.21.c: 34:     PORTA = 0b00000000;
  2655                           	bsf	(6),4	;volatile
  2656  050C  1606               	line	35
  2657                           ;STARTcobalt10.06.21.c: 35:     PORTB = 0b00000000;
  2658                           	bsf	(6),6	;volatile
  2659  050D  1706               	line	36
  2660                           ;STARTcobalt10.06.21.c: 36:     starts = 0;
  2661                           	bsf	(6),7	;volatile
  2662  050E  1786               	line	37
  2663                           	
  2664                           l32:	
  2665  050F                     	return
  2666  050F  0008               	opt stack 0
  2667                           GLOBAL	__end_of_ohranastart
  2668                           	__end_of_ohranastart:
  2669  0510                     	signat	_ohranastart,89
  2670                           global	___latbits
  2671                           ___latbits	equ	0
  2672  0000                     	global	btemp
  2673                           	btemp set 07Eh
  2674  007E                     
  2675                           	DABS	1,126,2	;btemp
  2676                           	global	wtemp0
  2677                           	wtemp0 set btemp+0
  2678  007E                     	end


Data Sizes:
    Strings     0
    Constant    0
    Data        0
    BSS         4
    Persistent  0
    Stack       0

Auto Spaces:
    Space          Size  Autos    Used
    COMMON           14      8      12
    BANK0            80      0       0
    BANK1            80      0       0
    BANK2            48      0       0

Pointer List with Targets:

    None.

Critical Paths under _main in COMMON

    _main->_magnitafon
    _magnitafon->_start

Critical Paths under _main in BANK0

    None.

Critical Paths under _main in BANK1

    None.

Critical Paths under _main in BANK2

    None.

Call Graph Tables:

 ---------------------------------------------------------------------------------
 (Depth) Function   	        Calls       Base Space   Used Autos Params    Refs
 ---------------------------------------------------------------------------------
 (0) _main                                                 3     3      0       0
                                              5 COMMON     3     3      0
                            _flicker
                         _magnitafon
                             _ohrana
                        _ohranastart
                              _start
                               _stop
                         _zajiganiya
                               _zvuk
 ---------------------------------------------------------------------------------
 (1) _zajiganiya                                           2     2      0       0
                                              0 COMMON     2     2      0
 ---------------------------------------------------------------------------------
 (1) _stop                                                 3     3      0       0
                                              0 COMMON     3     3      0
 ---------------------------------------------------------------------------------
 (1) _ohrana                                               0     0      0       0
 ---------------------------------------------------------------------------------
 (1) _magnitafon                                           2     2      0       0
                                              3 COMMON     2     2      0
                              _start
                               _zvuk
 ---------------------------------------------------------------------------------
 (1) _zvuk                                                 2     2      0       0
                                              0 COMMON     2     2      0
 ---------------------------------------------------------------------------------
 (1) _start                                                3     3      0       0
                                              0 COMMON     3     3      0
 ---------------------------------------------------------------------------------
 (1) _flicker                                              3     3      0       0
                                              0 COMMON     3     3      0
                        _ohranastart
 ---------------------------------------------------------------------------------
 (1) _ohranastart                                          0     0      0       0
 ---------------------------------------------------------------------------------
 Estimated maximum stack depth 1
 ---------------------------------------------------------------------------------

 Call Graph Graphs:

 _main (ROOT)
   _flicker
     _ohranastart
   _magnitafon
     _start
     _zvuk
   _ohrana
   _ohranastart
   _start
   _stop
   _zajiganiya
   _zvuk

 Address spaces:
Name               Size   Autos  Total    Cost      Usage
BITCOMMON            E      0       0       0        0.0%
EEDATA              80      0       0       0        0.0%
NULL                 0      0       0       0        0.0%
CODE                 0      0       0       0        0.0%
COMMON               E      8       C       1       85.7%
BITSFR0              0      0       0       1        0.0%
SFR0                 0      0       0       1        0.0%
BITSFR1              0      0       0       2        0.0%
SFR1                 0      0       0       2        0.0%
STACK                0      0       0       2        0.0%
BANK0               50      0       0       3        0.0%
BITSFR3              0      0       0       4        0.0%
SFR3                 0      0       0       4        0.0%
ABS                  0      0       C       4        0.0%
BITBANK0            50      0       0       5        0.0%
BITSFR2              0      0       0       5        0.0%
SFR2                 0      0       0       5        0.0%
BITBANK1            50      0       0       6        0.0%
BANK1               50      0       0       7        0.0%
BITBANK2            30      0       0       8        0.0%
BANK2               30      0       0       9        0.0%
DATA                 0      0       C      10        0.0%


Microchip Technology PIC Macro Assembler V2.00 build -1524193055 
Symbol Table                                                                                   Fri Jul 02 14:58:13 2021

             __CFG_CP$ON 0000                        _i 007B                        _u 007A  
                     l32 050F                       l40 05A1                       l41 05A1  
                     l50 0627                       l35 0595                       l51 0627  
                     l36 0572                       l60 056D                       l44 0507  
                     l37 0594                       l29 051E                       l61 0569  
                     l62 056C                       l54 0546                       l70 065B  
                     l39 05A0                       l47 05CE                       l63 0570  
                     l71 063D                       l48 05F2                       l64 0570  
                     l80 06A4                       l72 064E                       l49 05E8  
                     l57 0530                       l81 06A3                       l73 065A  
                     l90 06D9                       l82 069F                       l74 0661  
                     l91 071A                       l83 06A2                       l75 066E  
                     l92 0711                       l84 06C8                       l76 066D  
                     l93 0719                       l85 06C7                       l77 0670  
                     l69 063C                       l94 0799                       l86 06D0  
                     l78 06D1                       l95 0752                       l87 06D1  
                     l79 0671                       l96 0749                       l88 06D8  
                     l97 0751                       l89 07F2                       l98 0798  
                     l99 0797                       u10 05CC                       u11 05CB  
                     u20 05E1                       u21 05E0                       u30 05F2  
                     u31 05F1                       u40 0622                       u41 0621  
                     u50 0592              __CFG_CPD$ON 0000                       u51 0591  
                     u60 059B                       u61 059A                       u70 059F  
                     u71 059E                       u80 055A                       u81 0559  
                     u90 055E                       u91 055D                      l100 0782  
                    l101 0796                      l110 07F7                      l102 07F2  
                    l111 07F8                      l103 07EA                      l112 07F9  
                    l104 07A1                      l113 07F9                      l105 07D6  
                    l106 07D2                      l107 07D5                      l108 07E9  
                    l109 07F1                      l700 05C5                      l710 05E1  
                    l702 05C6                      l720 05FE                      l712 05E5  
                    l704 05CD                      l800 065B                      l730 061C  
                    l722 060A                      l714 05E8                      l706 05CE  
                    l810 067D                      l802 0666                      l740 058C  
                    l732 0622                      l724 060D                      l716 05EC  
                    l708 05DB                      l900 07A0                      l820 0695  
                    l812 0686                      l804 066B                      l742 0592  
                    l734 0571                      l726 060E                      l718 05F5  
                    l750 0531                      l910 07BE                      l902 07A1  
                    l830 06AE                      l822 069D                      l814 068C  
                    l806 0675                      l736 0573                      l744 0595  
                    l728 060F                      l752 0535                      l760 051F  
                    l920 07D0                      l912 07C2                      l904 07AE  
                    l832 06B2                      l840 06C8                      l824 069F  
                    l816 0690                      l808 0679                      l746 059B  
                    l738 0580                      l690 051B                      l770 055A  
                    l754 0536                      l762 0523                      l930 07E6  
                    l922 07D2                      l914 07C3                      l906 07B2  
                    l850 06ED                      l842 06CE                      l834 06BB  
                    l818 0694                      l826 06A4                      l692 0508  
                    l772 055E                      l764 0547                      l748 0501  
                    l756 0537                      l932 07E7                      l916 07C7  
                    l908 07B8                      l924 07D6                      l860 0717  
                    l852 06F1                      l844 06D9                      l836 06C1  
                    l828 06AA                      l780 0628                      l694 05A2  
                    l686 0510                      l774 055F                      l766 054B  
                    l758 0538                      l926 07DC                      l918 07C8  
                    l934 07EA                      l870 0736                      l854 06FE  
                    l862 071A                      l846 06E2                      l838 06C5  
                    l790 0646                      l782 062E                      l696 05A8  
                    l688 0513                      l776 0567                      l768 0554  
                    l928 07E2                      l880 0758                      l872 073C  
                    l864 071F                      l856 0704                      l848 06E7  
                    l792 064C                      l784 0631                      l698 05B5  
                    l778 0569                      l890 0782                      l882 075E  
                    l874 0749                      l866 0725                      l858 0711  
                    l794 064E                      l786 063A                      l892 0788  
                    l884 0762                      l876 074F                      l868 0729  
                    l796 0654                      l788 063D                      l894 078A  
                    l886 076F                      l878 0752                      l798 0658  
                    l896 078B                      l888 0775                      l898 0799  
                    u100 064C                      u101 064B                      u110 0654  
                    u111 0653                      u200 0690                      u120 0658  
                    u201 068F                      u121 0657                      u210 0694  
                    u130 0661                      u211 0693                      u131 0660  
                    u300 06ED                      u220 06AA                      u140 0666  
                    u301 06EC                      u221 06A9                      u141 0665  
                    u310 06F1                      u230 06AE                      u150 066B  
                    u311 06F0                      u231 06AD                      u151 066A  
                    u400 075E                      u320 0704                      u240 06B2  
                    u160 0675                      u401 075D                      u321 0703  
                    u241 06B1                      u161 0674                      u410 0762  
                    u330 0717                      u250 06C1                      u170 0679  
                    u411 0761                      u331 0716                      u251 06C0  
                    u171 0678                      u500 07E2                      u420 0775  
                    u340 071F                      u260 06C5                      u180 067D  
                    u501 07E1                      u421 0774                      u341 071E  
                    u261 06C4                      u181 067C                      u510 07E6  
                    u430 0788                      u350 0725                      u270 06CE  
                    u190 068C                      u511 07E5                      u431 0787  
                    u351 0724                      u271 06CD                      u191 068B  
                    u520 07F0                      u440 079F                      u360 0729  
                    u280 06D7                      u521 07EF                      u441 079E  
                    u361 0728                      u281 06D6                      u530 07F6  
                    u450 07B8                      u370 073C                      u290 06E7  
                    u531 07F5                      u451 07B7                      u371 073B  
                    u291 06E6                      u460 07BE                      u380 074F  
                    u461 07BD                      u381 074E                      u470 07C2  
                    u390 0758                      u471 07C1                      u391 0757  
                    u607 070A                      u480 07C7                      u481 07C6  
                    u617 072F                      u490 07DC                      u707 054F  
                    u491 07DB                      u627 0742                      u547 0641  
                    u717 0563                      u637 0768                      u557 0681  
                    u807 0587                      u727 0517                      u647 077B  
                    u567 0699                      u737 05AE                      u657 0790  
                    u577 06B6                      u747 05BE                      u667 07A7  
                    u587 06DD                      u757 05D4                      u677 07CC  
                    u597 06F7                      u767 05F9                      u687 052B  
                    u777 0605                      u697 053F                      u787 0615  
                    u797 0579             __CFG_LVP$OFF 0000                     _main 0628  
                   btemp 007E                     _stop 0531                     _zvuk 0510  
                   start 0000                    ?_main 0070            __CFG_WDTE$OFF 0000  
                  _CMCON 001F                    ?_stop 0070                    ?_zvuk 0070  
                  _PORTA 0005                    _PORTB 0006                    _TRISA 0085  
                  _TRISB 0086          __end_of_flicker 05A2                    _start 05A2  
         __CFG_BOREN$OFF 0000                    status 0003                    wtemp0 007E  
         __CFG_MCLRE$OFF 0000          __initialization 07FA             __end_of_main 07FA  
           __end_of_stop 0547             __end_of_zvuk 051F                   ??_main 0075  
                 ??_stop 0070             ?_ohranastart 0070                   ??_zvuk 0070  
                 ?_start 0070           __CFG_PWRTE$OFF 0000                   _ohrana 0501  
                 _starts 0078                   _status 0079                ??_flicker 0070  
__end_of__initialization 07FE           __pcstackCOMMON 0070            __end_of_start 0628  
                ??_start 0070               __pmaintext 0628                  ?_ohrana 0070  
   __size_of_ohranastart 0008               _magnitafon 0547          __size_of_ohrana 0007  
                __ptext1 051F                  __ptext2 0531                  __ptext3 0501  
                __ptext4 0547                  __ptext5 0510                  __ptext6 05A2  
                __ptext7 0571                  __ptext8 0508                  _flicker 0571  
   end_of_initialization 07FE                _PORTAbits 0005                _PORTBbits 0006  
             _zajiganiya 051F              ?_magnitafon 0070           __end_of_ohrana 0508  
    start_initialization 07FA                 ??_ohrana 0070      __size_of_magnitafon 002A  
            ?_zajiganiya 0070              __pbssCOMMON 0078                ___latbits 0000  
               ?_flicker 0070            ??_ohranastart 0070           __size_of_start 0086  
    __size_of_zajiganiya 0012      __end_of_ohranastart 0510             ??_magnitafon 0073  
       __size_of_flicker 0031       __end_of_magnitafon 0571            __size_of_main 01D2  
          __size_of_stop 0016            __size_of_zvuk 000F              _ohranastart 0508  
           ??_zajiganiya 0070       __end_of_zajiganiya 0531               _OPTION_REG 0081  
     __CFG_FOSC$INTOSCIO 0000  
