MPASM 5.87                    ANVAR TEST.ASM   4-28-2021  1:33:30         PAGE  1


LOC  OBJECT CODE     LINE SOURCE TEXT
  VALUE

Warning[205]: Found directive in column 1. (list)
                      00001 list p=12f675
                      00002         #include <P12f675.INC>
                      00001         LIST
                      00002 
                      00003 ;==========================================================================
                      00004 ; Build date : Jan 06 2020
                      00005 ;  MPASM PIC12F675 processor include
                      00006 ; 
                      00007 ;  (c) Copyright 1999-2020 Microchip Technology, All rights reserved
                      00008 ;==========================================================================
                      00009 
                      00367         LIST
                      00003         ERRORLEVEL      -302
2007   0054           00004         __CONFIG  00054H
  00000020            00005 Reg_1           equ         0x20                
  00000021            00006 Reg_2           equ         0x21
  00000022            00007 Reg_3           equ         0x22
  00000003            00008 STATUS          equ         0x03
  00000005            00009 GPIO            equ         0x05
  00000085            00010 TRISIO          equ         0x85
                      00011 ;*******************************************************************************                
                      00012                 org         0x00
                      00013 ;*******************************************************************************
0000   1283           00014                 bcf         STATUS,5
0001   0185           00015                 clrf        GPIO
0002   1683           00016                 bsf         STATUS,5
0003   3080           00017                 MOVLW       b'10000000'
0004   0081           00018                 MOVWF       OPTION_REG  
0005   0185           00019                 clrf        TRISIO
0006   1085           00020                 bcf         TRISIO,1
0007   1685           00021                 bsf         TRISIO,5
0008   1283           00022                 bcf         STATUS,5
                      00023 ;*******************************************************************************
0009   1E85           00024 prog            btfss       GPIO,5
000A   2???           00025                 call        anvar
000B   2???           00026                 goto        prog
                      00027 ;*******************************************************************************
000C   1485           00028 anvar           bsf         GPIO,1
000D   2???           00029                 call        delay_5sekund
000E   1085           00030                 bcf         GPIO,1
000F   0008           00031                 return          
                      00032 ;*******************************************************************************
0010   306E           00033 delay_5sekund movlw       .110
0011   00A0           00034                 movwf       Reg_1
0012   305E           00035                 movlw       .94
0013   00A1           00036                 movwf       Reg_2
0014   301A           00037                 movlw       .26
0015   00A2           00038                 movwf       Reg_3
0016   0BA0           00039                 decfsz      Reg_1,F
0017   2???           00040                 goto        $-1
0018   0BA1           00041                 decfsz      Reg_2,F
0019   2???           00042                 goto        $-3
MPASM 5.87                    ANVAR TEST.ASM   4-28-2021  1:33:30         PAGE  2


LOC  OBJECT CODE     LINE SOURCE TEXT
  VALUE

001A   0BA2           00043                 decfsz      Reg_3,F
001B   2???           00044                 goto        $-5
001C   0000           00045                 nop
001D   0008           00046                 return
                      00047 ;*******************************************************************************                
                      00048         
0054                  00049                 end
MPASM 5.87                    ANVAR TEST.ASM   4-28-2021  1:33:30         PAGE  3


SYMBOL TABLE
  LABEL                             VALUE 

ADCON0                            0000001F
ADCS0                             00000004
ADCS1                             00000005
ADCS2                             00000006
ADFM                              00000007
ADIE                              00000006
ADIF                              00000006
ADON                              00000000
ADRESH                            0000001E
ADRESL                            0000009E
ANS0                              00000000
ANS1                              00000001
ANS2                              00000002
ANS3                              00000003
ANSEL                             0000009F
C                                 00000000
CAL0                              00000002
CAL1                              00000003
CAL2                              00000004
CAL3                              00000005
CAL4                              00000006
CAL5                              00000007
CHS0                              00000002
CHS1                              00000003
CINV                              00000004
CIS                               00000003
CM0                               00000000
CM1                               00000001
CM2                               00000002
CMCON                             00000019
CMIE                              00000003
CMIF                              00000003
COUT                              00000006
DC                                00000001
EEADR                             0000009B
EECON1                            0000009C
EECON2                            0000009D
EEDAT                             0000009A
EEDATA                            0000009A
EEIE                              00000007
EEIF                              00000007
F                                 00000001
FSR                               00000004
GIE                               00000007
GO                                00000001
GO_DONE                           00000001
GO_NOT_DONE                       00000001
GP0                               00000000
GP1                               00000001
GP2                               00000002
GP3                               00000003
GP4                               00000004
GP5                               00000005
MPASM 5.87                    ANVAR TEST.ASM   4-28-2021  1:33:30         PAGE  4


SYMBOL TABLE
  LABEL                             VALUE 

GPIE                              00000003
GPIF                              00000000
GPIO                              00000005
GPIO0                             00000000
GPIO1                             00000001
GPIO2                             00000002
GPIO3                             00000003
GPIO4                             00000004
GPIO5                             00000005
INDF                              00000000
INTCON                            0000000B
INTE                              00000004
INTEDG                            00000006
INTF                              00000001
IOC                               00000096
IOC0                              00000000
IOC1                              00000001
IOC2                              00000002
IOC3                              00000003
IOC4                              00000004
IOC5                              00000005
IOCB                              00000096
IOCB0                             00000000
IOCB1                             00000001
IOCB2                             00000002
IOCB3                             00000003
IOCB4                             00000004
IOCB5                             00000005
IRP                               00000007
NOT_BOD                           00000000
NOT_BOR                           00000000
NOT_DONE                          00000001
NOT_GPPU                          00000007
NOT_PD                            00000003
NOT_POR                           00000001
NOT_T1SYNC                        00000002
NOT_TO                            00000004
OPTION_REG                        00000081
OSCCAL                            00000090
PCL                               00000002
PCLATH                            0000000A
PCON                              0000008E
PEIE                              00000006
PIE1                              0000008C
PIR1                              0000000C
PS0                               00000000
PS1                               00000001
PS2                               00000002
PSA                               00000003
RD                                00000000
RP0                               00000005
RP1                               00000006
Reg_1                             00000020
MPASM 5.87                    ANVAR TEST.ASM   4-28-2021  1:33:30         PAGE  5


SYMBOL TABLE
  LABEL                             VALUE 

Reg_2                             00000021
Reg_3                             00000022
STATUS                            00000003
T0CS                              00000005
T0IE                              00000005
T0IF                              00000002
T0SE                              00000004
T1CKPS0                           00000004
T1CKPS1                           00000005
T1CON                             00000010
T1IE                              00000000
T1IF                              00000000
T1OSCEN                           00000003
TMR0                              00000001
TMR0IE                            00000005
TMR0IF                            00000002
TMR1                              0000000E
TMR1CS                            00000001
TMR1GE                            00000006
TMR1H                             0000000F
TMR1IE                            00000000
TMR1IF                            00000000
TMR1L                             0000000E
TMR1ON                            00000000
TRISIO                            00000085
TRISIO0                           00000000
TRISIO1                           00000001
TRISIO2                           00000002
TRISIO3                           00000003
TRISIO4                           00000004
TRISIO5                           00000005
VCFG                              00000006
VR0                               00000000
VR1                               00000001
VR2                               00000002
VR3                               00000003
VRCON                             00000099
VREN                              00000007
VRR                               00000005
W                                 00000000
WPU                               00000095
WPU0                              00000000
WPU1                              00000001
WPU2                              00000002
WPU4                              00000004
WPU5                              00000005
WR                                00000001
WREN                              00000002
WRERR                             00000003
Z                                 00000002
_.org_0_0017                      00000017
_.org_0_0019                      00000019
_.org_0_001B                      0000001B
MPASM 5.87                    ANVAR TEST.ASM   4-28-2021  1:33:30         PAGE  6


SYMBOL TABLE
  LABEL                             VALUE 

_BODEN_OFF                        00003FBF
_BODEN_ON                         00003FFF
_BOREN_OFF                        00003FBF
_BOREN_ON                         00003FFF
_CONFIG                           00002007
_CPD_OFF                          00003FFF
_CPD_ON                           00003EFF
_CP_OFF                           00003FFF
_CP_ON                            00003F7F
_DEVID1                           00002006
_EC_OSC                           00003FFB
_EXTRC_OSC_CLKOUT                 00003FFF
_EXTRC_OSC_NOCLKOUT               00003FFE
_FOSC_EC                          00003FFB
_FOSC_EXTRCCLK                    00003FFF
_FOSC_EXTRCIO                     00003FFE
_FOSC_HS                          00003FFA
_FOSC_INTRCCLK                    00003FFD
_FOSC_INTRCIO                     00003FFC
_FOSC_LP                          00003FF8
_FOSC_XT                          00003FF9
_HS_OSC                           00003FFA
_IDLOC0                           00002000
_IDLOC1                           00002001
_IDLOC2                           00002002
_IDLOC3                           00002003
_INTRC_OSC_CLKOUT                 00003FFD
_INTRC_OSC_NOCLKOUT               00003FFC
_LP_OSC                           00003FF8
_MCLRE_OFF                        00003FDF
_MCLRE_ON                         00003FFF
_PWRTE_OFF                        00003FFF
_PWRTE_ON                         00003FEF
_WDTE_OFF                         00003FF7
_WDTE_ON                          00003FFF
_WDT_OFF                          00003FF7
_WDT_ON                           00003FFF
_XT_OSC                           00003FF9
__12F675                          00000001
anvar                             0000000C
delay_5sekund                     00000010
prog                              00000009

Errors   :     0
Warnings :     1 reported,     0 suppressed
Messages :     0 reported,     4 suppressed

